cdebian_linux.config
ConfigCore
p0
(tRp1
(Vabi
p2
tp3
(dp4
Vabiname
p5
V3
p6
sVignore-changes
p7
(lp8
V__cpuhp_*
p9
aV__xive_vm_h_*
p10
aVbpf_analyzer
p11
aVcxl_*
p12
aVdax_flush
p13
aVieee80211_nullfunc_get
p14
aVinet_add_protocol
p15
aVinet_del_protocol
p16
aViommu_device_*
p17
aVkvm_async_pf_task_wait
p18
aVkvmppc_*
p19
aVmm_iommu_*
p20
aVmv_mbus_*
p21
aVperf_*
p22
aVregister_cxl_calls
p23
aVregister_key_type
p24
aVunregister_cxl_calls
p25
aV*_hw_breakpoint
p26
aVmodule:arch/x86/kvm/*
p27
aVmodule:drivers/crypto/ccp/*
p28
aVmodule:drivers/hv/*
p29
aVmodule:drivers/gpu/drm/sun4i/*
p30
aVmodule:drivers/iio/**
p31
aVmodule:drivers/misc/cxl/*
p32
aVmodule:drivers/mtd/nand/*
p33
aVmodule:drivers/net/ethernet/**
p34
aVmodule:drivers/net/wireless/**
p35
aVmodule:drivers/nvdimm/*
p36
aVmodule:drivers/power/supply/bq27xxx_battery
p37
aVmodule:drivers/scsi/cxgbi/*
p38
aVmodule:drivers/scsi/libiscs*
p39
aVmodule:drivers/scsi/qla2xxx/qla2xxx
p40
aVmodule:drivers/scsi/ufs/*
p41
aVmodule:drivers/target/**
p42
aVmodule:drivers/usb/chipidea/**
p43
aVmodule:drivers/usb/gadget/**
p44
aVmodule:drivers/usb/host/**
p45
aVmodule:drivers/usb/musb/**
p46
aVmodule:fs/nfs/**
p47
aVmodule:net/ceph/libceph
p48
aVmodule:net/l2tp/**
p49
aVmodule:net/rxrpc/rxrpc
p50
aVmodule:net/sctp/**
p51
aVmodule:sound/core/seq/**
p52
aVmodule:sound/firewire/snd-firewire-lib
p53
aVmodule:sound/pci/hda/*
p54
aVbtree_*
p55
aVvisitor*
p56
aVcan_rx_register
p57
aVip6_xmit
p58
aVmodule:net/dccp/dccp
p59
aVmodule:net/rds/rds
p60
aVdevfreq_*
p61
aVdevm_devfreq_*
p62
aVupdate_devfreq
p63
aVmodule:drivers/infiniband/**
p64
aVacpi_ec_add_query_handler
p65
aVacpi_ec_remove_query_handler
p66
aVfirst_ec
p67
aVdebugfs_create_automount
p68
aVmodule:drivers/iio/imu/inv_mpu6050/*
p69
aVdrm_crtc_accurate_vblank_count
p70
aVacpi_nfit_desc_init
p71
aVacpi_nfit_init
p72
aVloop_register_transfer
p73
aVxen_xlate_*
p74
aVnf_nat_masquerade_ipv4_register_notifier
p75
aVnf_nat_masquerade_ipv6_register_notifier
p76
ass(Vbase
p77
tp78
(dp79
Varches
p80
(lp81
Valpha
p82
aVamd64
p83
aVarm64
p84
aVarm64ilp32
p85
aVarmel
p86
aVarmhf
p87
aVhppa
p88
aVi386
p89
aVia64
p90
aVm68k
p91
aVmips
p92
aVmips64
p93
aVmips64el
p94
aVmips64r6
p95
aVmips64r6el
p96
aVmipsel
p97
aVmipsn32
p98
aVmipsn32el
p99
aVmipsn32r6
p100
aVmipsn32r6el
p101
aVmipsr6
p102
aVmipsr6el
p103
aVpowerpc
p104
aVpowerpcspe
p105
aVppc64
p106
aVppc64el
p107
aVriscv64
p108
aVs390
p109
aVs390x
p110
aVsh3
p111
aVsh4
p112
aVsparc
p113
aVsparc64
p114
aVx32
p115
asVcompiler
p116
Vgcc-8
p117
sVfeaturesets
p118
(lp119
Vnone
p120
aVrt
p121
ass(Vbuild
p122
tp123
(dp124
Vdebug-info
p125
I01
sVsigned-code
p126
I00
ss(Vbase
p127
NVrt
p128
tp129
(dp130
Venabled
p131
I01
ss(Vdescription
p132
tp133
(dp134
Vpart-long-up
p135
VThis kernel is not suitable for SMP (multi-processor,\u000amulti-core or hyper-threaded) systems.
p136
ss(Vimage
p137
tp138
(dp139
Vinitramfs-generators
p140
(lp141
Vinitramfs-tools
p142
aVinitramfs-fallback
p143
asVrecommends
p144
Vapparmor
p145
ss(Vrelations
p146
tp147
(dp148
Vgcc-8
p149
Vgcc-8 <!stage1 !cross !pkg.linux.nokernel>, gcc-8-@gnu-type-package@ <!stage1 cross !pkg.linux.nokernel>
p150
sVinitramfs-fallback
p151
Vlinux-initramfs-tool
p152
sVinitramfs-tools
p153
Vinitramfs-tools (>= 0.120+deb8u2)
p154
ss(Vbase
p155
Valpha
p156
tp157
(dp158
Vkernel-arch
p159
Valpha
p160
sVfeaturesets
p161
(lp162
Vnone
p163
ass(Vbuild
p164
g156
tp165
(dp166
Vimage-file
p167
Varch/alpha/boot/vmlinux.gz
p168
ss(Vimage
p169
g156
tp170
(dp171
Vsuggests
p172
Vaboot, fdutils
p173
sVinstall-stem
p174
Vvmlinuz
p175
ss(Vdescription
p176
g156
NValpha-generic
p177
tp178
(dp179
Vhardware
p180
VAlpha
p181
sVhardware-long
p182
VDEC Alpha systems with extended kernel start address (Wildfire, Titan, Marvel)
p183
ss(Vdescription
p184
g156
NValpha-smp
p185
tp186
(dp187
Vhardware
p188
VAlpha SMP
p189
sVhardware-long
p190
VDEC Alpha SMP systems with extended kernel start address (Wildfire, Titan, Marvel)
p191
ss(Vbase
p192
g156
g163
tp193
(dp194
Vflavours
p195
(lp196
Valpha-generic
p197
aValpha-smp
p198
asVimplicit-flavour
p199
I01
ss(Vbase
p200
Vamd64
p201
tp202
(dp203
Vfeaturesets
p204
(lp205
Vnone
p206
aVrt
p207
asVkernel-arch
p208
Vx86
p209
ss(Vbuild
p210
g201
tp211
(dp212
Vdebug-info
p213
I01
sVimage-file
p214
Varch/x86/boot/bzImage
p215
sVsigned-code
p216
I01
sVvdso
p217
I01
ss(Vimage
p218
g201
tp219
(dp220
Vbootloaders
p221
(lp222
Vgrub-pc
p223
aVgrub-efi-amd64
p224
aVextlinux
p225
asVinstall-stem
p226
Vvmlinuz
p227
sVbreaks
p228
Vxserver-xorg-input-vmmouse (<< 1:13.0.99)
p229
ss(Vrelations
p230
g201
tp231
(dp232
Vgcc-8
p233
Vgcc-8 (>= 8-20180123-1~) <!stage1 !cross !pkg.linux.nokernel>, gcc-8-x86-64-linux-gnu (>= 8-20180123-1~) <!stage1 cross !pkg.linux.nokernel>
p234
sVheaders%gcc-8
p235
Vlinux-compiler-gcc-8-x86
p236
ss(Vdescription
p237
g201
NVamd64
p238
tp239
(dp240
Vhardware
p241
V64-bit PCs
p242
sVhardware-long
p243
VPCs with AMD64, Intel 64 or VIA Nano processors
p244
ss(Vdescription
p245
g201
NVcloud-amd64
p246
tp247
(dp248
Vhardware
p249
Vx86-64 cloud
p250
sVhardware-long
p251
VAmazon EC2, Google Compute Engine and Microsoft Azure cloud platforms
p252
ss(Vbase
p253
g201
Vnone
p254
tp255
(dp256
Vflavours
p257
(lp258
Vamd64
p259
aVcloud-amd64
p260
ass(Vbase
p261
g201
Vrt
p262
tp263
(dp264
Vflavours
p265
(lp266
Vamd64
p267
ass(Vbase
p268
Varm64
p269
tp270
(dp271
Vkernel-arch
p272
Varm64
p273
sVfeaturesets
p274
(lp275
Vnone
p276
aVrt
p277
ass(Vbuild
p278
g269
tp279
(dp280
Vdebug-info
p281
I01
sVimage-file
p282
Varch/arm64/boot/Image
p283
sVsigned-code
p284
I01
sVvdso
p285
I01
ss(Vimage
p286
g269
tp287
(dp288
Vinstall-stem
p289
Vvmlinuz
p290
sVbreaks
p291
Vlibmozjs185-1.0, libmozjs-24-0 (<< 24.2.0-5.1~)
p292
ss(Vdescription
p293
g269
NVarm64
p294
tp295
(dp296
Vhardware
p297
V64-bit ARMv8 machines
p298
ss(Vimage
p299
g269
NVarm64
p300
tp301
(dp302
s(Vbase
p303
g269
Vnone
p304
tp305
(dp306
Vflavours
p307
(lp308
Varm64
p309
ass(Vbase
p310
g269
Vrt
p311
tp312
(dp313
Vflavours
p314
(lp315
Varm64
p316
ass(Vbase
p317
Varm64ilp32
p318
tp319
(dp320
Vkernel-arch
p321
Varm64
p322
sVfeaturesets
p323
(lp324
ss(Vbase
p325
Varmel
p326
tp327
(dp328
Vkernel-arch
p329
Varm
p330
sg161
(lp331
g163
ass(Vbuild
p332
g326
tp333
(dp334
Vimage-file
p335
Varch/arm/boot/zImage
p336
sVuncompressed-image-file
p337
Varch/arm/boot/Image
p338
ss(Vimage
p339
g326
tp340
(dp341
Vinstall-stem
p342
Vvmlinuz
p343
ss(Vrelations
p344
g326
tp345
(dp346
Vheaders%gcc-8
p347
Vlinux-compiler-gcc-8-arm
p348
ss(Vdescription
p349
g326
NVmarvell
p350
tp351
(dp352
Vhardware
p353
VMarvell Kirkwood/Orion
p354
sVhardware-long
p355
VMarvell Kirkwood and Orion based systems (https://wiki.debian.org/ArmEabiPort#Supported_hardware)
p356
ss(Vimage
p357
g326
NVmarvell
p358
tp359
(dp360
Vrecommends
p361
Vu-boot-tools
p362
sVcheck-size
p363
I2097080
sVcheck-size-with-dtb
p364
I01
sVcheck-uncompressed-size
p365
I7340032
sVbreaks
p366
Vflash-kernel (<< 3.57~)
p367
ss(g192
g326
g163
tp368
(dp369
g195
(lp370
Vmarvell
p371
asg199
I01
ss(Vbase
p372
Varmhf
p373
tp374
(dp375
Vfeaturesets
p376
(lp377
Vnone
p378
aVrt
p379
asVkernel-arch
p380
Varm
p381
ss(Vbuild
p382
g373
tp383
(dp384
Vimage-file
p385
Varch/arm/boot/zImage
p386
sVvdso
p387
I01
ss(Vimage
p388
g373
tp389
(dp390
Vinstall-stem
p391
Vvmlinuz
p392
ss(Vrelations
p393
g373
tp394
(dp395
Vheaders%gcc-8
p396
Vlinux-compiler-gcc-8-arm
p397
ss(Vdescription
p398
g373
NVarmmp
p399
tp400
(dp401
Vhardware
p402
VARMv7 multiplatform compatible SoCs
p403
sVhardware-long
p404
VARMv7 multiplatform kernel. See\u000ahttps://wiki.debian.org/DebianKernel/ARMMP for details of supported\u000aplatforms
p405
ss(Vdescription
p406
g373
NVarmmp-lpae
p407
tp408
(dp409
Vhardware
p410
VARMv7 multiplatform compatible SoCs supporting LPAE
p411
sVhardware-long
p412
VARMv7 multiplatform kernel supporting LPAE. See\u000ahttps://wiki.debian.org/DebianKernel/ARMMP for details of supported\u000aplatforms.
p413
ss(Vbase
p414
g373
Vnone
p415
tp416
(dp417
Vflavours
p418
(lp419
Varmmp
p420
aVarmmp-lpae
p421
ass(Vbase
p422
g373
Vrt
p423
tp424
(dp425
Vflavours
p426
(lp427
Varmmp
p428
ass(Vbase
p429
Vhppa
p430
tp431
(dp432
Vkernel-arch
p433
Vparisc
p434
sg161
(lp435
g163
ass(Vbuild
p436
g430
tp437
(dp438
Vimage-file
p439
Varch/parisc/boot/bzImage
p440
sVdebug-info
p441
I00
ss(Vimage
p442
g430
tp443
(dp444
Vsuggests
p445
Vpalo
p446
sVinstall-stem
p447
Vvmlinuz
p448
ss(Vdescription
p449
g430
NVparisc
p450
tp451
(dp452
Vhardware
p453
V32-bit PA-RISC
p454
sVhardware-long
p455
VHP PA-RISC 32-bit systems with max 4 GB RAM
p456
ss(Vdescription
p457
g430
NVparisc-smp
p458
tp459
(dp460
Vhardware
p461
Vmultiprocessor 32-bit PA-RISC
p462
sVhardware-long
p463
VHP PA-RISC 32-bit SMP systems with max 4 GB RAM
p464
ss(Vbase
p465
g430
NVparisc64-smp
p466
tp467
(dp468
Vcflags
p469
V-fno-cse-follow-jumps
p470
sVoverride-host-type
p471
Vhppa64-linux-gnu
p472
ss(Vdescription
p473
g430
NVparisc64-smp
p474
tp475
(dp476
Vhardware
p477
Vmultiprocessor 64-bit PA-RISC
p478
sVhardware-long
p479
VHP PA-RISC 64-bit SMP systems with support for more than 4 GB RAM
p480
ss(Vrelations
p481
g430
tp482
(dp483
Vgcc-8
p484
Vgcc-8 <!stage1 !cross !pkg.linux.nokernel>, gcc-8-hppa-linux-gnu <!stage1 cross !pkg.linux.nokernel>, binutils-hppa64-linux-gnu <!stage1 !pkg.linux.nokernel>, gcc-8-hppa64-linux-gnu <!stage1 !pkg.linux.nokernel>
p485
ss(g192
g430
g163
tp486
(dp487
g195
(lp488
Vparisc
p489
aVparisc-smp
p490
aVparisc64-smp
p491
asg199
I01
ss(Vbase
p492
Vi386
p493
tp494
(dp495
Vfeaturesets
p496
(lp497
Vnone
p498
aVrt
p499
asVkernel-arch
p500
Vx86
p501
ss(Vbuild
p502
g493
tp503
(dp504
Vimage-file
p505
Varch/x86/boot/bzImage
p506
sVsigned-code
p507
I01
sVvdso
p508
I01
ss(Vdescription
p509
g493
tp510
(dp511
Vpart-long-pae
p512
VThis kernel requires PAE (Physical Address Extension).\u000aThis feature is supported by the Intel Pentium Pro/II/III/4/4M/D, Xeon,\u000aCore and Atom; AMD Geode NX, Athlon (K7), Duron, Opteron, Sempron,\u000aTurion or Phenom; Transmeta Efficeon; VIA C7; and some other processors.
p513
ss(Vimage
p514
g493
tp515
(dp516
Vbootloaders
p517
(lp518
Vgrub-pc
p519
aVextlinux
p520
asVinstall-stem
p521
Vvmlinuz
p522
sVbreaks
p523
Vxserver-xorg-input-vmmouse (<< 1:13.0.99)
p524
ss(Vrelations
p525
g493
tp526
(dp527
Vgcc-8
p528
Vgcc-8 (>= 8-20180123-1~) <!stage1 !cross !pkg.linux.nokernel>, gcc-8-i686-linux-gnu (>= 8-20180123-1~) <!stage1 cross !pkg.linux.nokernel>
p529
sVheaders%gcc-8
p530
Vlinux-compiler-gcc-8-x86
p531
ss(Vdescription
p532
g493
NV686
p533
tp534
(dp535
Vhardware
p536
Volder PCs
p537
sVhardware-long
p538
VPCs with one or more processors not supporting PAE
p539
ss(Vbuild
p540
g493
NV686-pae
p541
tp542
(dp543
Vdebug-info
p544
I01
ss(Vdescription
p545
g493
NV686-pae
p546
tp547
(dp548
Vhardware
p549
Vmodern PCs
p550
sVhardware-long
p551
VPCs with one or more processors supporting PAE
p552
sVparts
p553
(lp554
Vpae
p555
ass(Vbase
p556
g493
Vnone
p557
tp558
(dp559
Vflavours
p560
(lp561
V686
p562
aV686-pae
p563
ass(Vbase
p564
g493
Vrt
p565
tp566
(dp567
Vflavours
p568
(lp569
V686-pae
p570
ass(Vbase
p571
Via64
p572
tp573
(dp574
Vkernel-arch
p575
Via64
p576
sg161
(lp577
g163
ass(Vbuild
p578
g572
tp579
(dp580
Vimage-file
p581
Vvmlinux.gz
p582
ss(Vimage
p583
g572
tp584
(dp585
Vbootloaders
p586
(lp587
Velilo
p588
asVinstall-stem
p589
Vvmlinuz
p590
ss(Vdescription
p591
g572
NVitanium
p592
tp593
(dp594
Vhardware
p595
VItanium (Merced)
p596
sVhardware-long
p597
Vsystems with original Itanium (Merced) processors
p598
ss(Vdescription
p599
g572
NVmckinley
p600
tp601
(dp602
Vhardware
p603
VItanium 2+
p604
sVhardware-long
p605
Vsystems with Itanium 2 or 9300/9500/9700-series processors
p606
ss(g192
g572
g163
tp607
(dp608
g195
(lp609
Vitanium
p610
aVmckinley
p611
asg199
I01
ss(Vbase
p612
Vm68k
p613
tp614
(dp615
Vcflags
p616
V-ffreestanding
p617
sVkernel-arch
p618
Vm68k
p619
sg161
(lp620
g163
ass(Vbuild
p621
g613
tp622
(dp623
Vimage-file
p624
Vvmlinux
p625
ss(Vimage
p626
g613
tp627
(dp628
Vsuggests
p629
Vvmelilo, fdutils
p630
sVinstall-stem
p631
Vvmlinux
p632
ss(Vdescription
p633
g613
NVm68k
p634
tp635
(dp636
Vhardware
p637
VMotorola MC68020+ family
p638
ss(g192
g613
g163
tp639
(dp640
g195
(lp641
Vm68k
p642
asg199
I01
ss(Vbase
p643
Vmips
p644
tp645
(dp646
Vkernel-arch
p647
Vmips
p648
sg161
(lp649
g163
ass(Vbuild
p650
g644
tp651
(dp652
Vimage-file
p653
Vvmlinux
p654
ss(Vimage
p655
g644
tp656
(dp657
Vinstall-stem
p658
Vvmlinux
p659
ss(Vdescription
p660
g644
NV4kc-malta
p661
tp662
(dp663
Vhardware
p664
VMIPS Malta
p665
sVhardware-long
p666
VMIPS Malta boards
p667
ss(Vimage
p668
g644
NV4kc-malta
p669
tp670
(dp671
Vconfigs
p672
(lp673
Vkernelarch-mips/config.malta
p674
aVkernelarch-mips/config.mips32r2
p675
ass(Vdescription
p676
g644
NV5kc-malta
p677
tp678
(dp679
Vhardware
p680
VMIPS Malta (64-bit)
p681
sVhardware-long
p682
VMIPS Malta boards (64-bit)
p683
ss(Vimage
p684
g644
NV5kc-malta
p685
tp686
(dp687
Vconfigs
p688
(lp689
Vkernelarch-mips/config.malta
p690
aVkernelarch-mips/config.mips64r2
p691
ass(Vdescription
p692
g644
NVocteon
p693
tp694
(dp695
Vhardware
p696
VOcteon
p697
sVhardware-long
p698
VCavium Networks Octeon
p699
ss(Vimage
p700
g644
NVocteon
p701
tp702
(dp703
Vconfigs
p704
(lp705
Vkernelarch-mips/config.octeon
p706
ass(g192
g644
g163
tp707
(dp708
g195
(lp709
V4kc-malta
p710
aV5kc-malta
p711
aVocteon
p712
asg199
I01
ss(Vbase
p713
Vmips64
p714
tp715
(dp716
Vkernel-arch
p717
Vmips
p718
sg161
(lp719
g163
ass(Vbuild
p720
g714
tp721
(dp722
Vimage-file
p723
Vvmlinux
p724
ss(Vimage
p725
g714
tp726
(dp727
Vinstall-stem
p728
Vvmlinux
p729
ss(Vdescription
p730
g714
NV5kc-malta
p731
tp732
(dp733
Vhardware
p734
VMIPS Malta
p735
sVhardware-long
p736
VMIPS Malta boards
p737
ss(Vimage
p738
g714
NV5kc-malta
p739
tp740
(dp741
Vconfigs
p742
(lp743
Vkernelarch-mips/config.malta
p744
aVkernelarch-mips/config.mips64r2
p745
ass(Vdescription
p746
g714
NVocteon
p747
tp748
(dp749
Vhardware
p750
VOcteon
p751
sVhardware-long
p752
VCavium Networks Octeon
p753
ss(Vimage
p754
g714
NVocteon
p755
tp756
(dp757
Vconfigs
p758
(lp759
Vkernelarch-mips/config.octeon
p760
ass(g192
g714
g163
tp761
(dp762
g195
(lp763
V5kc-malta
p764
aVocteon
p765
asg199
I01
ss(Vbase
p766
Vmips64el
p767
tp768
(dp769
Vkernel-arch
p770
Vmips
p771
sg161
(lp772
g163
ass(Vbuild
p773
g767
tp774
(dp775
Vimage-file
p776
Vvmlinux
p777
ss(Vimage
p778
g767
tp779
(dp780
Vinstall-stem
p781
Vvmlinux
p782
ss(Vdescription
p783
g767
NV5kc-malta
p784
tp785
(dp786
Vhardware
p787
VMIPS Malta
p788
sVhardware-long
p789
VMIPS Malta boards
p790
ss(Vimage
p791
g767
NV5kc-malta
p792
tp793
(dp794
Vconfigs
p795
(lp796
Vkernelarch-mips/config.malta
p797
aVkernelarch-mips/config.mips64r2
p798
ass(Vdescription
p799
g767
NVloongson-3
p800
tp801
(dp802
Vhardware
p803
VLoongson 3A/3B
p804
sVhardware-long
p805
VLoongson 3A or 3B based systems (e.g. from Loongson or Lemote)
p806
ss(Vimage
p807
g767
NVloongson-3
p808
tp809
(dp810
Vconfigs
p811
(lp812
Vkernelarch-mips/config.loongson-3
p813
ass(Vdescription
p814
g767
NVocteon
p815
tp816
(dp817
Vhardware
p818
VOcteon
p819
sVhardware-long
p820
VCavium Networks Octeon
p821
ss(Vimage
p822
g767
NVocteon
p823
tp824
(dp825
Vconfigs
p826
(lp827
Vkernelarch-mips/config.octeon
p828
ass(g192
g767
g163
tp829
(dp830
g195
(lp831
V5kc-malta
p832
aVloongson-3
p833
aVocteon
p834
asg199
I01
ss(Vbase
p835
Vmips64r6
p836
tp837
(dp838
Vkernel-arch
p839
Vmips
p840
sg161
(lp841
g163
ass(Vbuild
p842
g836
tp843
(dp844
Vimage-file
p845
Vvmlinux
p846
ss(Vimage
p847
g836
tp848
(dp849
Vinstall-stem
p850
Vvmlinux
p851
ss(Vdescription
p852
g836
NVmips64r6
p853
tp854
(dp855
Vhardware
p856
VMIPS R6 (64 bit, big endian)
p857
sVhardware-long
p858
VMIPS R6 (64 bit, big endian)
p859
ss(Vimage
p860
g836
NVmips64r6
p861
tp862
(dp863
Vconfigs
p864
(lp865
Vkernelarch-mips/config.boston
p866
aVkernelarch-mips/config.mips64r6
p867
ass(g192
g836
g163
tp868
(dp869
g195
(lp870
Vmips64r6
p871
asg199
I01
ss(Vbase
p872
Vmips64r6el
p873
tp874
(dp875
Vkernel-arch
p876
Vmips
p877
sg161
(lp878
g163
ass(Vbuild
p879
g873
tp880
(dp881
Vimage-file
p882
Vvmlinux
p883
ss(Vimage
p884
g873
tp885
(dp886
Vinstall-stem
p887
Vvmlinux
p888
ss(Vdescription
p889
g873
NVmips64r6el
p890
tp891
(dp892
Vhardware
p893
VMIPS R6 (64 bit, little endian)
p894
sVhardware-long
p895
VMIPS R6 (64 bit, little endian)
p896
ss(Vimage
p897
g873
NVmips64r6el
p898
tp899
(dp900
Vconfigs
p901
(lp902
Vkernelarch-mips/config.boston
p903
aVkernelarch-mips/config.mips64r6
p904
ass(g192
g873
g163
tp905
(dp906
g195
(lp907
Vmips64r6el
p908
asg199
I01
ss(Vbase
p909
Vmipsel
p910
tp911
(dp912
Vkernel-arch
p913
Vmips
p914
sg161
(lp915
g163
ass(Vbuild
p916
g910
tp917
(dp918
Vimage-file
p919
Vvmlinux
p920
ss(Vimage
p921
g910
tp922
(dp923
Vinstall-stem
p924
Vvmlinux
p925
ss(Vdescription
p926
g910
NV4kc-malta
p927
tp928
(dp929
Vhardware
p930
VMIPS Malta
p931
sVhardware-long
p932
VMIPS Malta boards
p933
ss(Vimage
p934
g910
NV4kc-malta
p935
tp936
(dp937
Vconfigs
p938
(lp939
Vkernelarch-mips/config.malta
p940
aVkernelarch-mips/config.mips32r2
p941
ass(Vdescription
p942
g910
NV5kc-malta
p943
tp944
(dp945
Vhardware
p946
VMIPS Malta (64-bit)
p947
sVhardware-long
p948
VMIPS Malta boards (64-bit)
p949
ss(Vimage
p950
g910
NV5kc-malta
p951
tp952
(dp953
Vconfigs
p954
(lp955
Vkernelarch-mips/config.malta
p956
aVkernelarch-mips/config.mips64r2
p957
ass(Vdescription
p958
g910
NVloongson-3
p959
tp960
(dp961
Vhardware
p962
VLoongson 3A/3B
p963
sVhardware-long
p964
VLoongson 3A or 3B based systems (e.g. from Loongson or Lemote)
p965
ss(Vimage
p966
g910
NVloongson-3
p967
tp968
(dp969
Vconfigs
p970
(lp971
Vkernelarch-mips/config.loongson-3
p972
ass(Vdescription
p973
g910
NVocteon
p974
tp975
(dp976
Vhardware
p977
VOcteon
p978
sVhardware-long
p979
VCavium Networks Octeon
p980
ss(Vimage
p981
g910
NVocteon
p982
tp983
(dp984
Vconfigs
p985
(lp986
Vkernelarch-mips/config.octeon
p987
ass(g192
g910
g163
tp988
(dp989
g195
(lp990
V4kc-malta
p991
aV5kc-malta
p992
aVloongson-3
p993
aVocteon
p994
asg199
I01
ss(Vbase
p995
Vmipsn32
p996
tp997
(dp998
Vkernel-arch
p999
Vmips
p1000
sVfeaturesets
p1001
(lp1002
ss(Vbase
p1003
Vmipsn32el
p1004
tp1005
(dp1006
Vkernel-arch
p1007
Vmips
p1008
sVfeaturesets
p1009
(lp1010
ss(Vbase
p1011
Vmipsn32r6
p1012
tp1013
(dp1014
Vkernel-arch
p1015
Vmips
p1016
sVfeaturesets
p1017
(lp1018
ss(Vbase
p1019
Vmipsn32r6el
p1020
tp1021
(dp1022
Vkernel-arch
p1023
Vmips
p1024
sVfeaturesets
p1025
(lp1026
ss(Vbase
p1027
Vmipsr6
p1028
tp1029
(dp1030
Vkernel-arch
p1031
Vmips
p1032
sg161
(lp1033
g163
ass(Vbuild
p1034
g1028
tp1035
(dp1036
Vimage-file
p1037
Vvmlinux
p1038
ss(Vimage
p1039
g1028
tp1040
(dp1041
Vinstall-stem
p1042
Vvmlinux
p1043
ss(Vdescription
p1044
g1028
NVmips32r6
p1045
tp1046
(dp1047
Vhardware
p1048
VMIPS R6 (32 bit, big endian)
p1049
sVhardware-long
p1050
VMIPS R6 (32 bit, big endian)
p1051
ss(Vimage
p1052
g1028
NVmips32r6
p1053
tp1054
(dp1055
Vconfigs
p1056
(lp1057
Vkernelarch-mips/config.boston
p1058
aVkernelarch-mips/config.mips32r6
p1059
ass(Vdescription
p1060
g1028
NVmips64r6
p1061
tp1062
(dp1063
Vhardware
p1064
VMIPS R6 (64 bit, big endian)
p1065
sVhardware-long
p1066
VMIPS R6 (64 bit, big endian)
p1067
ss(Vimage
p1068
g1028
NVmips64r6
p1069
tp1070
(dp1071
Vconfigs
p1072
(lp1073
Vkernelarch-mips/config.boston
p1074
aVkernelarch-mips/config.mips64r6
p1075
ass(g192
g1028
g163
tp1076
(dp1077
g195
(lp1078
Vmips32r6
p1079
aVmips64r6
p1080
asg199
I01
ss(Vbase
p1081
Vmipsr6el
p1082
tp1083
(dp1084
Vkernel-arch
p1085
Vmips
p1086
sg161
(lp1087
g163
ass(Vbuild
p1088
g1082
tp1089
(dp1090
Vimage-file
p1091
Vvmlinux
p1092
ss(Vimage
p1093
g1082
tp1094
(dp1095
Vinstall-stem
p1096
Vvmlinux
p1097
ss(Vdescription
p1098
g1082
NVmips32r6el
p1099
tp1100
(dp1101
Vhardware
p1102
VMIPS R6 (32 bit, little endian)
p1103
sVhardware-long
p1104
VMIPS R6 (32 bit, little endian)
p1105
ss(Vimage
p1106
g1082
NVmips32r6el
p1107
tp1108
(dp1109
Vconfigs
p1110
(lp1111
Vkernelarch-mips/config.boston
p1112
aVkernelarch-mips/config.mips32r6
p1113
ass(Vdescription
p1114
g1082
NVmips64r6el
p1115
tp1116
(dp1117
Vhardware
p1118
VMIPS R6 (64 bit, little endian)
p1119
sVhardware-long
p1120
VMIPS R6 (64 bit, little endian)
p1121
ss(Vimage
p1122
g1082
NVmips64r6el
p1123
tp1124
(dp1125
Vconfigs
p1126
(lp1127
Vkernelarch-mips/config.boston
p1128
aVkernelarch-mips/config.mips64r6
p1129
ass(g192
g1082
g163
tp1130
(dp1131
g195
(lp1132
Vmips32r6el
p1133
aVmips64r6el
p1134
asg199
I01
ss(Vbase
p1135
Vpowerpc
p1136
tp1137
(dp1138
Vkernel-arch
p1139
Vpowerpc
p1140
sg161
(lp1141
g163
ass(Vbuild
p1142
g1136
tp1143
(dp1144
Vimage-file
p1145
Vvmlinux
p1146
sVvdso
p1147
I01
ss(Vimage
p1148
g1136
tp1149
(dp1150
Vconfigs
p1151
(lp1152
sVsuggests
p1153
Vmkvmlinuz
p1154
sVinstall-stem
p1155
Vvmlinux
p1156
ss(Vdescription
p1157
g1136
NVpowerpc
p1158
tp1159
(dp1160
Vhardware
p1161
Vuniprocessor 32-bit PowerPC
p1162
ss(Vdescription
p1163
g1136
NVpowerpc-smp
p1164
tp1165
(dp1166
Vhardware
p1167
Vmultiprocessor 32-bit PowerPC
p1168
ss(Vimage
p1169
g1136
NVpowerpc-smp
p1170
tp1171
(dp1172
Vconfigs
p1173
(lp1174
Vpowerpc/config.powerpc
p1175
aVpowerpc/config.powerpc-smp
p1176
ass(Vdescription
p1177
g1136
NVpowerpc64
p1178
tp1179
(dp1180
Vhardware
p1181
V64-bit PowerPC
p1182
ss(Vimage
p1183
g1136
NVpowerpc64
p1184
tp1185
(dp1186
Vconfigs
p1187
(lp1188
Vkernelarch-powerpc/config-arch-64
p1189
aVkernelarch-powerpc/config-arch-64-be
p1190
ass(g192
g1136
g163
tp1191
(dp1192
g195
(lp1193
Vpowerpc
p1194
aVpowerpc-smp
p1195
aVpowerpc64
p1196
asg199
I01
ss(Vbase
p1197
Vpowerpcspe
p1198
tp1199
(dp1200
Vkernel-arch
p1201
Vpowerpc
p1202
sg161
(lp1203
g163
ass(Vbuild
p1204
g1198
tp1205
(dp1206
Vimage-file
p1207
Vvmlinux
p1208
sVvdso
p1209
I01
ss(Vimage
p1210
g1198
tp1211
(dp1212
Vsuggests
p1213
Vmkvmlinuz
p1214
sVinstall-stem
p1215
Vvmlinux
p1216
ss(Vdescription
p1217
g1198
tp1218
(dp1219
Vhardware
p1220
V32-bit PowerPC with SPE (instead of AltiVec) with SMP support
p1221
ss(g192
g1198
g163
tp1222
(dp1223
g195
(lp1224
Vpowerpcspe
p1225
asg199
I01
ss(Vbase
p1226
Vppc64
p1227
tp1228
(dp1229
Vkernel-arch
p1230
Vpowerpc
p1231
sg161
(lp1232
g163
ass(Vbuild
p1233
g1227
tp1234
(dp1235
Vimage-file
p1236
Vvmlinux
p1237
sVvdso
p1238
I01
ss(Vimage
p1239
g1227
tp1240
(dp1241
Vconfigs
p1242
(lp1243
sVsuggests
p1244
Vmkvmlinuz
p1245
sVinstall-stem
p1246
Vvmlinux
p1247
ss(Vdescription
p1248
g1227
NVpowerpc64
p1249
tp1250
(dp1251
Vhardware
p1252
V64-bit PowerPC
p1253
ss(Vimage
p1254
g1227
NVpowerpc64
p1255
tp1256
(dp1257
Vconfigs
p1258
(lp1259
Vkernelarch-powerpc/config-arch-64
p1260
aVkernelarch-powerpc/config-arch-64-be
p1261
ass(g192
g1227
g163
tp1262
(dp1263
g195
(lp1264
Vpowerpc64
p1265
asg199
I01
ss(Vbase
p1266
Vppc64el
p1267
tp1268
(dp1269
Vkernel-arch
p1270
Vpowerpc
p1271
sg161
(lp1272
g163
ass(Vbuild
p1273
g1267
tp1274
(dp1275
Vimage-file
p1276
Vvmlinux
p1277
sVvdso
p1278
I01
ss(Vimage
p1279
g1267
tp1280
(dp1281
Vconfigs
p1282
(lp1283
sVsuggests
p1284
Vmkvmlinuz
p1285
sVinstall-stem
p1286
Vvmlinux
p1287
ss(Vdescription
p1288
g1267
NVpowerpc64le
p1289
tp1290
(dp1291
Vhardware
p1292
VLittle-endian 64-bit PowerPC
p1293
ss(Vimage
p1294
g1267
NVpowerpc64le
p1295
tp1296
(dp1297
Vconfigs
p1298
(lp1299
Vkernelarch-powerpc/config-arch-64
p1300
aVkernelarch-powerpc/config-arch-64-le
p1301
ass(g192
g1267
g163
tp1302
(dp1303
g195
(lp1304
Vpowerpc64le
p1305
asg199
I01
ss(Vbase
p1306
Vriscv64
p1307
tp1308
(dp1309
Vkernel-arch
p1310
Vriscv
p1311
sVfeaturesets
p1312
(lp1313
Vnone
p1314
ass(Vbuild
p1315
g1307
tp1316
(dp1317
Vimage-file
p1318
Vvmlinux
p1319
ss(Vimage
p1320
g1307
tp1321
(dp1322
Vinstall-stem
p1323
Vvmlinux
p1324
ss(Vdescription
p1325
g1307
NVriscv64
p1326
tp1327
(dp1328
Vhardware
p1329
V64-bit RISC-V platforms
p1330
sVhardware-long
p1331
V64-bit RISC-V platforms
p1332
ss(Vbase
p1333
g1307
Vnone
p1334
tp1335
(dp1336
Vflavours
p1337
(lp1338
Vriscv64
p1339
ass(Vbase
p1340
Vs390
p1341
tp1342
(dp1343
Vkernel-arch
p1344
Vs390
p1345
sVfeaturesets
p1346
(lp1347
ss(Vbase
p1348
Vs390x
p1349
tp1350
(dp1351
Vkernel-arch
p1352
Vs390
p1353
sg161
(lp1354
g163
ass(Vbuild
p1355
g1349
tp1356
(dp1357
Vimage-file
p1358
Varch/s390/boot/bzImage
p1359
sVvdso
p1360
I01
ss(Vimage
p1361
g1349
tp1362
(dp1363
Vbootloaders
p1364
(lp1365
Vs390-tools
p1366
asVinstall-stem
p1367
Vvmlinuz
p1368
ss(Vrelations
p1369
g1349
tp1370
(dp1371
Vheaders%gcc-8
p1372
Vlinux-compiler-gcc-8-s390
p1373
ss(Vbuild
p1374
g1349
NVs390x
p1375
tp1376
(dp1377
Vdebug-info
p1378
I01
ss(Vdescription
p1379
g1349
NVs390x
p1380
tp1381
(dp1382
Vhardware
p1383
VIBM zSeries
p1384
ss(g192
g1349
g163
tp1385
(dp1386
g195
(lp1387
Vs390x
p1388
asg199
I01
ss(Vbase
p1389
Vsh3
p1390
tp1391
(dp1392
Vkernel-arch
p1393
Vsh
p1394
sVfeaturesets
p1395
(lp1396
ss(Vbase
p1397
Vsh4
p1398
tp1399
(dp1400
Vkernel-arch
p1401
Vsh
p1402
sg161
(lp1403
g163
ass(Vbuild
p1404
g1398
tp1405
(dp1406
Vimage-file
p1407
Varch/sh/boot/zImage
p1408
ss(Vimage
p1409
g1398
tp1410
(dp1411
Vinstall-stem
p1412
Vvmlinuz
p1413
ss(Vdescription
p1414
g1398
NVsh7751r
p1415
tp1416
(dp1417
Vhardware
p1418
Vsh7751r
p1419
sVhardware-long
p1420
VRenesas SH7751R R2D plus board
p1421
ss(Vdescription
p1422
g1398
NVsh7785lcr
p1423
tp1424
(dp1425
Vhardware
p1426
Vsh7785lcr
p1427
sVhardware-long
p1428
VRenesas SH7785 reference board
p1429
ss(Vimage
p1430
g1398
NVsh7785lcr
p1431
tp1432
(dp1433
Vrecommends
p1434
Vu-boot-tools
p1435
sVcheck-size
p1436
I4194304
ss(g192
g1398
g163
tp1437
(dp1438
g195
(lp1439
Vsh7751r
p1440
aVsh7785lcr
p1441
asg199
I01
ss(Vbase
p1442
Vsparc
p1443
tp1444
(dp1445
Vkernel-arch
p1446
Vsparc
p1447
sVfeaturesets
p1448
(lp1449
ss(Vbase
p1450
Vsparc64
p1451
tp1452
(dp1453
Vkernel-arch
p1454
Vsparc
p1455
sg161
(lp1456
g163
ass(Vbuild
p1457
g1451
tp1458
(dp1459
Vimage-file
p1460
Varch/sparc/boot/zImage
p1461
ss(Vimage
p1462
g1451
tp1463
(dp1464
Vconfigs
p1465
(lp1466
sVsuggests
p1467
Vsilo, fdutils
p1468
sVinstall-stem
p1469
Vvmlinuz
p1470
ss(Vdescription
p1471
g1451
NVsparc64
p1472
tp1473
(dp1474
Vhardware
p1475
Vuniprocessor 64-bit UltraSPARC
p1476
ss(Vimage
p1477
g1451
NVsparc64
p1478
tp1479
(dp1480
Vconfigs
p1481
(lp1482
Vkernelarch-sparc/config-up
p1483
ass(Vdescription
p1484
g1451
NVsparc64-smp
p1485
tp1486
(dp1487
Vhardware
p1488
Vmultiprocessor 64-bit UltraSPARC
p1489
ss(Vimage
p1490
g1451
NVsparc64-smp
p1491
tp1492
(dp1493
Vconfigs
p1494
(lp1495
Vkernelarch-sparc/config-smp
p1496
ass(g192
g1451
g163
tp1497
(dp1498
g195
(lp1499
Vsparc64
p1500
aVsparc64-smp
p1501
asg199
I01
ss(Vbase
p1502
Vx32
p1503
tp1504
(dp1505
Vkernel-arch
p1506
Vx86
p1507
sVfeaturesets
p1508
(lp1509
ss(Vabi
p1510
NVrt
p1511
tp1512
(dp1513
Vignore-changes
p1514
(lp1515
V*
p1516
ass(Vdescription
p1517
Ng1511
tp1518
(dp1519
Vpart-long-rt
p1520
VThis kernel includes the PREEMPT_RT realtime patch set.
p1521
sVpart-short-rt
p1522
VPREEMPT_RT
p1523
sVparts
p1524
(lp1525
Vrt
p1526
ass(Vversion
p1527
tp1528
(dp1529
Vsource
p1530
V4.19.20-1
p1531
sVupstream
p1532
V4.19
p1533
sVabiname_base
p1534
V4.19.0
p1535
sVabiname
p1536
V4.19.0-3
p1537
ss.