cdebian_linux.config
ConfigCore
p0
(tRp1
(Vpackages
p2
tp3
(dp4
Vinstaller
p5
I00
ss(Vabi
p6
tp7
(dp8
Vabiname
p9
V1
p10
sVignore-changes
p11
(lp12
V__cpuhp_*
p13
aVbpf_analyzer
p14
aVcxl_*
p15
aVdax_flush
p16
aVieee80211_nullfunc_get
p17
aVinet_add_protocol
p18
aVinet_del_protocol
p19
aViommu_device_*
p20
aVmm_iommu_*
p21
aVmv_mbus_*
p22
aVperf_*
p23
aVregister_cxl_calls
p24
aVregister_key_type
p25
aVunregister_cxl_calls
p26
aV*_hw_breakpoint
p27
aVmodule:drivers/crypto/ccp/*
p28
aVmodule:drivers/hv/*
p29
aVmodule:drivers/gpu/drm/sun4i/*
p30
aVmodule:drivers/iio/**
p31
aVmodule:drivers/misc/cxl/*
p32
aVmodule:drivers/mtd/nand/*
p33
aVmodule:drivers/net/ethernet/**
p34
aVmodule:drivers/net/wireless/**
p35
aVmodule:drivers/nvdimm/*
p36
aVmodule:drivers/nvme/**
p37
aVmodule:drivers/power/supply/bq27xxx_battery
p38
aVmodule:drivers/scsi/cxgbi/*
p39
aVmodule:drivers/scsi/libiscs*
p40
aVmodule:drivers/scsi/qla2xxx/qla2xxx
p41
aVmodule:drivers/scsi/ufs/*
p42
aVmodule:drivers/target/**
p43
aVmodule:drivers/usb/chipidea/**
p44
aVmodule:drivers/usb/gadget/**
p45
aVmodule:drivers/usb/host/**
p46
aVmodule:drivers/usb/musb/**
p47
aVmodule:fs/nfs/**
p48
aVmodule:net/ceph/libceph
p49
aVmodule:net/l2tp/**
p50
aVmodule:net/rxrpc/rxrpc
p51
aVmodule:net/sctp/**
p52
aVmodule:sound/core/seq/**
p53
aVmodule:sound/firewire/snd-firewire-lib
p54
aVmodule:sound/pci/hda/*
p55
aVbtree_*
p56
aVvisitor*
p57
aVcan_rx_register
p58
aVip6_xmit
p59
aVmodule:net/dccp/dccp
p60
aVmodule:net/rds/rds
p61
aVdevfreq_*
p62
aVdevm_devfreq_*
p63
aVupdate_devfreq
p64
aVmodule:drivers/infiniband/**
p65
aVacpi_ec_add_query_handler
p66
aVacpi_ec_remove_query_handler
p67
aVfirst_ec
p68
aVdebugfs_create_automount
p69
aVmodule:drivers/iio/imu/inv_mpu6050/*
p70
aVdrm_crtc_accurate_vblank_count
p71
aVacpi_nfit_desc_init
p72
aVacpi_nfit_init
p73
aVloop_register_transfer
p74
aVxen_xlate_*
p75
aVnf_nat_masquerade_ipv4_register_notifier
p76
aVnf_nat_masquerade_ipv6_register_notifier
p77
aVmodule:drivers/scsi/hisi_sas/*
p78
aV__gfn_*
p79
aV__kvmhv_*
p80
aV__kvm_*
p81
aV__xive_vm_h_*
p82
aVgfn_*
p83
aVh_ipi_redirect
p84
aVhalt_poll_ns*
p85
aVkvm_*
p86
aVkvmhv_*
p87
aVkvmppc_*
p88
aVmark_page_dirty
p89
aVvcpu_*
p90
aVmodule:arch/powerpc/kvm/*
p91
aVmodule:arch/s390/kvm/*
p92
aVmodule:arch/x86/kvm/*
p93
ass(Vbase
p94
tp95
(dp96
Varches
p97
(lp98
Valpha
p99
aVamd64
p100
aVarm64
p101
aVarm64ilp32
p102
aVarmel
p103
aVarmhf
p104
aVhppa
p105
aVi386
p106
aVia64
p107
aVm68k
p108
aVmips
p109
aVmips64
p110
aVmips64el
p111
aVmips64r6
p112
aVmips64r6el
p113
aVmipsel
p114
aVmipsn32
p115
aVmipsn32el
p116
aVmipsn32r6
p117
aVmipsn32r6el
p118
aVmipsr6
p119
aVmipsr6el
p120
aVpowerpc
p121
aVppc64
p122
aVppc64el
p123
aVriscv64
p124
aVs390
p125
aVs390x
p126
aVsh3
p127
aVsh4
p128
aVsparc
p129
aVsparc64
p130
aVx32
p131
asVcompiler
p132
Vgcc-8
p133
sVfeaturesets
p134
(lp135
Vnone
p136
aVrt
p137
ass(Vbuild
p138
tp139
(dp140
Vdebug-info
p141
I01
sVsigned-code
p142
I00
ss(Vbase
p143
NVrt
p144
tp145
(dp146
Venabled
p147
I01
ss(Vdescription
p148
tp149
(dp150
Vpart-long-up
p151
VThis kernel is not suitable for SMP (multi-processor,\u000amulti-core or hyper-threaded) systems.
p152
ss(Vimage
p153
tp154
(dp155
Vinitramfs-generators
p156
(lp157
Vinitramfs-tools
p158
aVinitramfs-fallback
p159
asVbreaks
p160
(lp161
Vwireless-regdb (<< 2019.06.03-1~)
p162
asVrecommends
p163
(lp164
Vapparmor
p165
ass(Vrelations
p166
tp167
(dp168
Vgcc-8
p169
Vgcc-8 <!stage1 !cross !pkg.linux.nokernel>, gcc-8-@gnu-type-package@ <!stage1 cross !pkg.linux.nokernel>
p170
sVinitramfs-fallback
p171
Vlinux-initramfs-tool
p172
sVinitramfs-tools
p173
Vinitramfs-tools (>= 0.120+deb8u2)
p174
ss(Vbase
p175
Valpha
p176
tp177
(dp178
Vdefault-flavour
p179
Valpha-smp
p180
sVkernel-arch
p181
Valpha
p182
sVfeaturesets
p183
(lp184
Vnone
p185
ass(Vbuild
p186
g176
tp187
(dp188
Vimage-file
p189
Varch/alpha/boot/vmlinux.gz
p190
ss(Vimage
p191
g176
tp192
(dp193
Vsuggests
p194
(lp195
Vaboot
p196
aVfdutils
p197
asVinstall-stem
p198
Vvmlinuz
p199
ss(Vdescription
p200
g176
NValpha-generic
p201
tp202
(dp203
Vhardware
p204
VAlpha
p205
sVhardware-long
p206
VDEC Alpha systems with extended kernel start address (Wildfire, Titan, Marvel)
p207
ss(Vdescription
p208
g176
NValpha-smp
p209
tp210
(dp211
Vhardware
p212
VAlpha SMP
p213
sVhardware-long
p214
VDEC Alpha SMP systems with extended kernel start address (Wildfire, Titan, Marvel)
p215
ss(Vbase
p216
g176
g185
tp217
(dp218
Vflavours
p219
(lp220
Valpha-generic
p221
aValpha-smp
p222
asVimplicit-flavour
p223
I01
ss(Vbase
p224
Vamd64
p225
tp226
(dp227
Vfeaturesets
p228
(lp229
Vnone
p230
asVkernel-arch
p231
Vx86
p232
ss(Vbuild
p233
g225
tp234
(dp235
Vimage-file
p236
Varch/x86/boot/bzImage
p237
sVsigned-code
p238
I00
sVvdso
p239
I01
ss(Vimage
p240
g225
tp241
(dp242
Vbootloaders
p243
(lp244
Vgrub-pc
p245
aVgrub-efi-amd64
p246
aVextlinux
p247
asVinstall-stem
p248
Vvmlinuz
p249
sVbreaks
p250
(lp251
Vxserver-xorg-input-vmmouse (<< 1:13.0.99)
p252
ass(Vrelations
p253
g225
tp254
(dp255
Vheaders%gcc-8
p256
Vlinux-compiler-gcc-8-x86
p257
ss(Vdescription
p258
g225
NVamd64
p259
tp260
(dp261
Vhardware
p262
V64-bit PCs
p263
sVhardware-long
p264
VPCs with AMD64, Intel 64 or VIA Nano processors
p265
ss(Vdescription
p266
g225
NVcloud-amd64
p267
tp268
(dp269
Vhardware
p270
Vx86-64 cloud
p271
sVhardware-long
p272
Vcloud platforms including Amazon EC2, Microsoft Azure, and Google Compute Engine
p273
ss(Vbase
p274
g225
Vnone
p275
tp276
(dp277
Vflavours
p278
(lp279
Vamd64
p280
asVdefault-flavour
p281
Vamd64
p282
ss(Vimage
p283
g225
g275
Vcloud-amd64
p284
tp285
(dp286
Vconfigs
p287
(lp288
Vconfig.cloud
p289
aVamd64/config.cloud-amd64
p290
ass(Vbase
p291
Varm64
p292
tp293
(dp294
Vcross-compile-compat
p295
Varm-linux-gnueabihf-
p296
sVkernel-arch
p297
Varm64
p298
sVfeaturesets
p299
(lp300
Vnone
p301
ass(Vbuild
p302
g292
tp303
(dp304
Vimage-file
p305
Varch/arm64/boot/Image
p306
sVsigned-code
p307
I00
sVvdso
p308
I01
ss(Vimage
p309
g292
tp310
(dp311
Vinstall-stem
p312
Vvmlinuz
p313
sVbreaks
p314
(lp315
Vlibmozjs185-1.0
p316
aVlibmozjs-24-0 (<< 24.2.0-5.1~)
p317
ass(Vdescription
p318
g292
NVarm64
p319
tp320
(dp321
Vhardware
p322
V64-bit ARMv8 machines
p323
ss(Vdescription
p324
g292
NVcloud-arm64
p325
tp326
(dp327
Vhardware
p328
Varm64 cloud
p329
sVhardware-long
p330
Vcloud platforms supporting arm64 virtual machines
p331
ss(Vimage
p332
g292
NVarm64
p333
tp334
(dp335
s(Vrelations
p336
g292
tp337
(dp338
Vgcc-8
p339
Vgcc-8 <!stage1 !cross !pkg.linux.nokernel>, gcc-8-aarch64-linux-gnu <!stage1 cross !pkg.linux.nokernel>, gcc-arm-linux-gnueabihf <!stage1 !pkg.linux.nokernel>
p340
sVheaders%gcc-8
p341
Vgcc-8
p342
ss(Vbase
p343
g292
Vnone
p344
tp345
(dp346
Vflavours
p347
(lp348
Varm64
p349
asVdefault-flavour
p350
Varm64
p351
ss(Vimage
p352
g292
g344
Vcloud-arm64
p353
tp354
(dp355
Vconfigs
p356
(lp357
Vconfig.cloud
p358
aVarm64/config.cloud-arm64
p359
ass(Vbase
p360
Varm64ilp32
p361
tp362
(dp363
Vkernel-arch
p364
Varm64
p365
sVfeaturesets
p366
(lp367
ss(Vbase
p368
Varmel
p369
tp370
(dp371
Vkernel-arch
p372
Varm
p373
sg183
(lp374
g185
ass(Vbuild
p375
g369
tp376
(dp377
Vimage-file
p378
Varch/arm/boot/zImage
p379
sVuncompressed-image-file
p380
Varch/arm/boot/Image
p381
ss(Vimage
p382
g369
tp383
(dp384
Vinstall-stem
p385
Vvmlinuz
p386
ss(Vrelations
p387
g369
tp388
(dp389
Vheaders%gcc-8
p390
Vlinux-compiler-gcc-8-arm
p391
ss(Vdescription
p392
g369
NVmarvell
p393
tp394
(dp395
Vhardware
p396
VMarvell Kirkwood/Orion
p397
sVhardware-long
p398
VMarvell Kirkwood and Orion based systems (https://wiki.debian.org/ArmEabiPort#Supported_hardware)
p399
ss(Vdescription
p400
g369
NVrpi
p401
tp402
(dp403
Vhardware
p404
VRaspberry Pi and Pi Zero
p405
sVhardware-long
p406
VRaspberry Pi, Raspberry Pi Zero based systems
p407
ss(Vimage
p408
g369
NVmarvell
p409
tp410
(dp411
Vrecommends
p412
(lp413
Vu-boot-tools
p414
asVcheck-size
p415
I2729712
sVcheck-size-with-dtb
p416
I01
sVbreaks
p417
(lp418
Vflash-kernel (<< 3.57~)
p419
ass(g216
g369
g185
tp420
(dp421
g219
(lp422
Vmarvell
p423
aVrpi
p424
asg223
I01
ss(Vbase
p425
Varmhf
p426
tp427
(dp428
Vfeaturesets
p429
(lp430
Vnone
p431
asVkernel-arch
p432
Varm
p433
ss(Vbuild
p434
g426
tp435
(dp436
Vimage-file
p437
Varch/arm/boot/zImage
p438
sVvdso
p439
I01
ss(Vimage
p440
g426
tp441
(dp442
Vinstall-stem
p443
Vvmlinuz
p444
ss(Vrelations
p445
g426
tp446
(dp447
Vheaders%gcc-8
p448
Vlinux-compiler-gcc-8-arm
p449
ss(Vdescription
p450
g426
NVarmmp
p451
tp452
(dp453
Vhardware
p454
VARMv7 multiplatform compatible SoCs
p455
sVhardware-long
p456
VARMv7 multiplatform kernel. See\u000ahttps://wiki.debian.org/DebianKernel/ARMMP for details of supported\u000aplatforms
p457
ss(Vdescription
p458
g426
NVarmmp-lpae
p459
tp460
(dp461
Vhardware
p462
VARMv7 multiplatform compatible SoCs supporting LPAE
p463
sVhardware-long
p464
VARMv7 multiplatform kernel supporting LPAE. See\u000ahttps://wiki.debian.org/DebianKernel/ARMMP for details of supported\u000aplatforms.
p465
ss(Vbase
p466
g426
Vnone
p467
tp468
(dp469
Vflavours
p470
(lp471
Varmmp
p472
asVdefault-flavour
p473
Varmmp
p474
ss(Vbase
p475
Vhppa
p476
tp477
(dp478
Vdefault-flavour
p479
Vparisc
p480
sVkernel-arch
p481
Vparisc
p482
sg183
(lp483
g185
ass(Vbuild
p484
g476
tp485
(dp486
Vimage-file
p487
Varch/parisc/boot/bzImage
p488
sVdebug-info
p489
I00
ss(Vimage
p490
g476
tp491
(dp492
Vsuggests
p493
(lp494
Vpalo
p495
asVinstall-stem
p496
Vvmlinuz
p497
ss(Vdescription
p498
g476
NVparisc
p499
tp500
(dp501
Vhardware
p502
V32-bit PA-RISC
p503
sVhardware-long
p504
VHP PA-RISC 32-bit systems with max 4 GB RAM
p505
ss(Vbase
p506
g476
NVparisc64
p507
tp508
(dp509
Vcflags
p510
V-fno-cse-follow-jumps
p511
sVoverride-host-type
p512
Vhppa64-linux-gnu
p513
ss(Vdescription
p514
g476
NVparisc64
p515
tp516
(dp517
Vhardware
p518
V64-bit PA-RISC
p519
sVhardware-long
p520
VHP PA-RISC 64-bit systems with support for more than 4 GB RAM
p521
ss(Vrelations
p522
g476
tp523
(dp524
Vgcc-8
p525
Vgcc-8 <!stage1 !cross !pkg.linux.nokernel>, gcc-8-hppa-linux-gnu <!stage1 cross !pkg.linux.nokernel>, binutils-hppa64-linux-gnu <!stage1 !pkg.linux.nokernel>, gcc-8-hppa64-linux-gnu <!stage1 !pkg.linux.nokernel>
p526
ss(g216
g476
g185
tp527
(dp528
g219
(lp529
Vparisc
p530
aVparisc64
p531
asg223
I01
ss(Vbase
p532
Vi386
p533
tp534
(dp535
Vfeaturesets
p536
(lp537
Vnone
p538
asVkernel-arch
p539
Vx86
p540
ss(Vbuild
p541
g533
tp542
(dp543
Vimage-file
p544
Varch/x86/boot/bzImage
p545
sVsigned-code
p546
I00
sVvdso
p547
I01
ss(Vdescription
p548
g533
tp549
(dp550
Vpart-long-pae
p551
VThis kernel requires PAE (Physical Address Extension).\u000aThis feature is supported by the Intel Pentium Pro/II/III/4/4M/D, Xeon,\u000aCore and Atom; AMD Geode NX, Athlon (K7), Duron, Opteron, Sempron,\u000aTurion or Phenom; Transmeta Efficeon; VIA C7; and some other processors.
p552
ss(Vimage
p553
g533
tp554
(dp555
Vbootloaders
p556
(lp557
Vgrub-pc
p558
aVgrub-efi-ia32
p559
aVextlinux
p560
asVinstall-stem
p561
Vvmlinuz
p562
sVbreaks
p563
(lp564
Vxserver-xorg-input-vmmouse (<< 1:13.0.99)
p565
ass(Vrelations
p566
g533
tp567
(dp568
Vheaders%gcc-8
p569
Vlinux-compiler-gcc-8-x86
p570
ss(Vdescription
p571
g533
NV686
p572
tp573
(dp574
Vhardware
p575
Volder PCs
p576
sVhardware-long
p577
VPCs with one or more processors not supporting PAE
p578
ss(Vdescription
p579
g533
NV686-pae
p580
tp581
(dp582
Vhardware
p583
Vmodern PCs
p584
sVhardware-long
p585
VPCs with one or more processors supporting PAE
p586
sVparts
p587
(lp588
Vpae
p589
ass(Vbase
p590
g533
Vnone
p591
tp592
(dp593
Vflavours
p594
(lp595
V686
p596
aV686-pae
p597
asVdefault-flavour
p598
V686-pae
p599
ss(Vbase
p600
Via64
p601
tp602
(dp603
Vdefault-flavour
p604
Vitanium
p605
sVkernel-arch
p606
Via64
p607
sg183
(lp608
g185
ass(Vbuild
p609
g601
tp610
(dp611
Vimage-file
p612
Vvmlinux.gz
p613
ss(Vimage
p614
g601
tp615
(dp616
Vbootloaders
p617
(lp618
Vgrub-efi-ia64
p619
asVinstall-stem
p620
Vvmlinuz
p621
ss(Vdescription
p622
g601
NVitanium
p623
tp624
(dp625
Vhardware
p626
VItanium (Merced)
p627
sVhardware-long
p628
Vsystems with original Itanium (Merced) processors
p629
ss(Vdescription
p630
g601
NVmckinley
p631
tp632
(dp633
Vhardware
p634
VItanium 2+
p635
sVhardware-long
p636
Vsystems with Itanium 2 or 9300/9500/9700-series processors
p637
ss(g216
g601
g185
tp638
(dp639
g219
(lp640
Vitanium
p641
aVmckinley
p642
asg223
I01
ss(Vbase
p643
Vm68k
p644
tp645
(dp646
Vcflags
p647
V-ffreestanding
p648
sVdefault-flavour
p649
Vm68k
p650
sVkernel-arch
p651
Vm68k
p652
sg183
(lp653
g185
ass(Vbuild
p654
g644
tp655
(dp656
Vimage-file
p657
Vvmlinux
p658
ss(Vimage
p659
g644
tp660
(dp661
Vsuggests
p662
(lp663
Vvmelilo
p664
aVfdutils
p665
asVinstall-stem
p666
Vvmlinux
p667
ss(Vdescription
p668
g644
NVm68k
p669
tp670
(dp671
Vhardware
p672
VMotorola MC68020+ family
p673
ss(g216
g644
g185
tp674
(dp675
g219
(lp676
Vm68k
p677
asg223
I01
ss(Vbase
p678
Vmips
p679
tp680
(dp681
Vkernel-arch
p682
Vmips
p683
sg183
(lp684
g185
ass(Vbuild
p685
g679
tp686
(dp687
Vimage-file
p688
Vvmlinuz
p689
ss(Vimage
p690
g679
tp691
(dp692
Vinstall-stem
p693
Vvmlinuz
p694
ss(Vdescription
p695
g679
NV4kc-malta
p696
tp697
(dp698
Vhardware
p699
VMIPS Malta
p700
sVhardware-long
p701
VMIPS Malta boards
p702
ss(Vimage
p703
g679
NV4kc-malta
p704
tp705
(dp706
Vconfigs
p707
(lp708
Vkernelarch-mips/config.malta
p709
aVkernelarch-mips/config.mips32r2
p710
ass(Vdescription
p711
g679
NV5kc-malta
p712
tp713
(dp714
Vhardware
p715
VMIPS Malta (64-bit)
p716
sVhardware-long
p717
VMIPS Malta boards (64-bit)
p718
ss(Vimage
p719
g679
NV5kc-malta
p720
tp721
(dp722
Vconfigs
p723
(lp724
Vkernelarch-mips/config.malta
p725
aVkernelarch-mips/config.mips64r2
p726
ass(Vdescription
p727
g679
NVocteon
p728
tp729
(dp730
Vhardware
p731
VOcteon
p732
sVhardware-long
p733
VCavium Networks Octeon
p734
ss(Vbuild
p735
g679
NVocteon
p736
tp737
(dp738
Vimage-file
p739
Vvmlinux
p740
ss(Vimage
p741
g679
NVocteon
p742
tp743
(dp744
Vinstall-stem
p745
Vvmlinux
p746
sVconfigs
p747
(lp748
Vkernelarch-mips/config.octeon
p749
ass(g216
g679
g185
tp750
(dp751
g219
(lp752
V4kc-malta
p753
aV5kc-malta
p754
aVocteon
p755
asg223
I01
ss(Vbase
p756
Vmips64
p757
tp758
(dp759
Vkernel-arch
p760
Vmips
p761
sg183
(lp762
g185
ass(Vbuild
p763
g757
tp764
(dp765
Vimage-file
p766
Vvmlinuz
p767
ss(Vimage
p768
g757
tp769
(dp770
Vinstall-stem
p771
Vvmlinuz
p772
ss(Vdescription
p773
g757
NV5kc-malta
p774
tp775
(dp776
Vhardware
p777
VMIPS Malta
p778
sVhardware-long
p779
VMIPS Malta boards
p780
ss(Vimage
p781
g757
NV5kc-malta
p782
tp783
(dp784
Vconfigs
p785
(lp786
Vkernelarch-mips/config.malta
p787
aVkernelarch-mips/config.mips64r2
p788
ass(Vdescription
p789
g757
NVocteon
p790
tp791
(dp792
Vhardware
p793
VOcteon
p794
sVhardware-long
p795
VCavium Networks Octeon
p796
ss(Vbuild
p797
g757
NVocteon
p798
tp799
(dp800
Vimage-file
p801
Vvmlinux
p802
ss(Vimage
p803
g757
NVocteon
p804
tp805
(dp806
Vinstall-stem
p807
Vvmlinux
p808
sVconfigs
p809
(lp810
Vkernelarch-mips/config.octeon
p811
ass(g216
g757
g185
tp812
(dp813
g219
(lp814
V5kc-malta
p815
aVocteon
p816
asg223
I01
ss(Vbase
p817
Vmips64el
p818
tp819
(dp820
Vkernel-arch
p821
Vmips
p822
sg183
(lp823
g185
ass(Vbuild
p824
g818
tp825
(dp826
Vimage-file
p827
Vvmlinuz
p828
ss(Vimage
p829
g818
tp830
(dp831
Vinstall-stem
p832
Vvmlinuz
p833
ss(Vdescription
p834
g818
NV5kc-malta
p835
tp836
(dp837
Vhardware
p838
VMIPS Malta
p839
sVhardware-long
p840
VMIPS Malta boards
p841
ss(Vimage
p842
g818
NV5kc-malta
p843
tp844
(dp845
Vconfigs
p846
(lp847
Vkernelarch-mips/config.malta
p848
aVkernelarch-mips/config.mips64r2
p849
ass(Vdescription
p850
g818
NVloongson-3
p851
tp852
(dp853
Vhardware
p854
VLoongson 3A/3B
p855
sVhardware-long
p856
VLoongson 3A or 3B based systems (e.g. from Loongson or Lemote)
p857
ss(Vimage
p858
g818
NVloongson-3
p859
tp860
(dp861
Vconfigs
p862
(lp863
Vkernelarch-mips/config.loongson-3
p864
ass(Vdescription
p865
g818
NVocteon
p866
tp867
(dp868
Vhardware
p869
VOcteon
p870
sVhardware-long
p871
VCavium Networks Octeon
p872
ss(Vbuild
p873
g818
NVocteon
p874
tp875
(dp876
Vimage-file
p877
Vvmlinux
p878
ss(Vimage
p879
g818
NVocteon
p880
tp881
(dp882
Vinstall-stem
p883
Vvmlinux
p884
sVconfigs
p885
(lp886
Vkernelarch-mips/config.octeon
p887
ass(g216
g818
g185
tp888
(dp889
g219
(lp890
V5kc-malta
p891
aVloongson-3
p892
aVocteon
p893
asg223
I01
ss(Vbase
p894
Vmips64r6
p895
tp896
(dp897
Vdefault-flavour
p898
Vmips64r6
p899
sVkernel-arch
p900
Vmips
p901
sg183
(lp902
g185
ass(Vbuild
p903
g895
tp904
(dp905
Vimage-file
p906
Vvmlinux
p907
ss(Vimage
p908
g895
tp909
(dp910
Vinstall-stem
p911
Vvmlinux
p912
ss(Vdescription
p913
g895
NVmips64r6
p914
tp915
(dp916
Vhardware
p917
VMIPS R6 (64 bit, big endian)
p918
sVhardware-long
p919
VMIPS R6 (64 bit, big endian)
p920
ss(Vimage
p921
g895
NVmips64r6
p922
tp923
(dp924
Vconfigs
p925
(lp926
Vkernelarch-mips/config.boston
p927
aVkernelarch-mips/config.mips64r6
p928
ass(g216
g895
g185
tp929
(dp930
g219
(lp931
Vmips64r6
p932
asg223
I01
ss(Vbase
p933
Vmips64r6el
p934
tp935
(dp936
Vdefault-flavour
p937
Vmips64r6el
p938
sVkernel-arch
p939
Vmips
p940
sg183
(lp941
g185
ass(Vbuild
p942
g934
tp943
(dp944
Vimage-file
p945
Vvmlinux
p946
ss(Vimage
p947
g934
tp948
(dp949
Vinstall-stem
p950
Vvmlinux
p951
ss(Vdescription
p952
g934
NVmips64r6el
p953
tp954
(dp955
Vhardware
p956
VMIPS R6 (64 bit, little endian)
p957
sVhardware-long
p958
VMIPS R6 (64 bit, little endian)
p959
ss(Vimage
p960
g934
NVmips64r6el
p961
tp962
(dp963
Vconfigs
p964
(lp965
Vkernelarch-mips/config.boston
p966
aVkernelarch-mips/config.mips64r6
p967
ass(g216
g934
g185
tp968
(dp969
g219
(lp970
Vmips64r6el
p971
asg223
I01
ss(Vbase
p972
Vmipsel
p973
tp974
(dp975
Vkernel-arch
p976
Vmips
p977
sg183
(lp978
g185
ass(Vbuild
p979
g973
tp980
(dp981
Vimage-file
p982
Vvmlinuz
p983
ss(Vimage
p984
g973
tp985
(dp986
Vinstall-stem
p987
Vvmlinuz
p988
ss(Vdescription
p989
g973
NV4kc-malta
p990
tp991
(dp992
Vhardware
p993
VMIPS Malta
p994
sVhardware-long
p995
VMIPS Malta boards
p996
ss(Vimage
p997
g973
NV4kc-malta
p998
tp999
(dp1000
Vconfigs
p1001
(lp1002
Vkernelarch-mips/config.malta
p1003
aVkernelarch-mips/config.mips32r2
p1004
ass(Vdescription
p1005
g973
NV5kc-malta
p1006
tp1007
(dp1008
Vhardware
p1009
VMIPS Malta (64-bit)
p1010
sVhardware-long
p1011
VMIPS Malta boards (64-bit)
p1012
ss(Vimage
p1013
g973
NV5kc-malta
p1014
tp1015
(dp1016
Vconfigs
p1017
(lp1018
Vkernelarch-mips/config.malta
p1019
aVkernelarch-mips/config.mips64r2
p1020
ass(Vdescription
p1021
g973
NVloongson-3
p1022
tp1023
(dp1024
Vhardware
p1025
VLoongson 3A/3B
p1026
sVhardware-long
p1027
VLoongson 3A or 3B based systems (e.g. from Loongson or Lemote)
p1028
ss(Vimage
p1029
g973
NVloongson-3
p1030
tp1031
(dp1032
Vconfigs
p1033
(lp1034
Vkernelarch-mips/config.loongson-3
p1035
ass(Vdescription
p1036
g973
NVocteon
p1037
tp1038
(dp1039
Vhardware
p1040
VOcteon
p1041
sVhardware-long
p1042
VCavium Networks Octeon
p1043
ss(Vbuild
p1044
g973
NVocteon
p1045
tp1046
(dp1047
Vimage-file
p1048
Vvmlinux
p1049
ss(Vimage
p1050
g973
NVocteon
p1051
tp1052
(dp1053
Vinstall-stem
p1054
Vvmlinux
p1055
sVconfigs
p1056
(lp1057
Vkernelarch-mips/config.octeon
p1058
ass(g216
g973
g185
tp1059
(dp1060
g219
(lp1061
V4kc-malta
p1062
aV5kc-malta
p1063
aVloongson-3
p1064
aVocteon
p1065
asg223
I01
ss(Vbase
p1066
Vmipsn32
p1067
tp1068
(dp1069
Vkernel-arch
p1070
Vmips
p1071
sVfeaturesets
p1072
(lp1073
ss(Vbase
p1074
Vmipsn32el
p1075
tp1076
(dp1077
Vkernel-arch
p1078
Vmips
p1079
sVfeaturesets
p1080
(lp1081
ss(Vbase
p1082
Vmipsn32r6
p1083
tp1084
(dp1085
Vkernel-arch
p1086
Vmips
p1087
sVfeaturesets
p1088
(lp1089
ss(Vbase
p1090
Vmipsn32r6el
p1091
tp1092
(dp1093
Vkernel-arch
p1094
Vmips
p1095
sVfeaturesets
p1096
(lp1097
ss(Vbase
p1098
Vmipsr6
p1099
tp1100
(dp1101
Vdefault-flavour
p1102
Vmips32r6
p1103
sVkernel-arch
p1104
Vmips
p1105
sg183
(lp1106
g185
ass(Vbuild
p1107
g1099
tp1108
(dp1109
Vimage-file
p1110
Vvmlinux
p1111
ss(Vimage
p1112
g1099
tp1113
(dp1114
Vinstall-stem
p1115
Vvmlinux
p1116
ss(Vdescription
p1117
g1099
NVmips32r6
p1118
tp1119
(dp1120
Vhardware
p1121
VMIPS R6 (32 bit, big endian)
p1122
sVhardware-long
p1123
VMIPS R6 (32 bit, big endian)
p1124
ss(Vimage
p1125
g1099
NVmips32r6
p1126
tp1127
(dp1128
Vconfigs
p1129
(lp1130
Vkernelarch-mips/config.boston
p1131
aVkernelarch-mips/config.mips32r6
p1132
ass(Vdescription
p1133
g1099
NVmips64r6
p1134
tp1135
(dp1136
Vhardware
p1137
VMIPS R6 (64 bit, big endian)
p1138
sVhardware-long
p1139
VMIPS R6 (64 bit, big endian)
p1140
ss(Vimage
p1141
g1099
NVmips64r6
p1142
tp1143
(dp1144
Vconfigs
p1145
(lp1146
Vkernelarch-mips/config.boston
p1147
aVkernelarch-mips/config.mips64r6
p1148
ass(g216
g1099
g185
tp1149
(dp1150
g219
(lp1151
Vmips32r6
p1152
aVmips64r6
p1153
asg223
I01
ss(Vbase
p1154
Vmipsr6el
p1155
tp1156
(dp1157
Vdefault-flavour
p1158
Vmips32r6el
p1159
sVkernel-arch
p1160
Vmips
p1161
sg183
(lp1162
g185
ass(Vbuild
p1163
g1155
tp1164
(dp1165
Vimage-file
p1166
Vvmlinux
p1167
ss(Vimage
p1168
g1155
tp1169
(dp1170
Vinstall-stem
p1171
Vvmlinux
p1172
ss(Vdescription
p1173
g1155
NVmips32r6el
p1174
tp1175
(dp1176
Vhardware
p1177
VMIPS R6 (32 bit, little endian)
p1178
sVhardware-long
p1179
VMIPS R6 (32 bit, little endian)
p1180
ss(Vimage
p1181
g1155
NVmips32r6el
p1182
tp1183
(dp1184
Vconfigs
p1185
(lp1186
Vkernelarch-mips/config.boston
p1187
aVkernelarch-mips/config.mips32r6
p1188
ass(Vdescription
p1189
g1155
NVmips64r6el
p1190
tp1191
(dp1192
Vhardware
p1193
VMIPS R6 (64 bit, little endian)
p1194
sVhardware-long
p1195
VMIPS R6 (64 bit, little endian)
p1196
ss(Vimage
p1197
g1155
NVmips64r6el
p1198
tp1199
(dp1200
Vconfigs
p1201
(lp1202
Vkernelarch-mips/config.boston
p1203
aVkernelarch-mips/config.mips64r6
p1204
ass(g216
g1155
g185
tp1205
(dp1206
g219
(lp1207
Vmips32r6el
p1208
aVmips64r6el
p1209
asg223
I01
ss(Vbase
p1210
Vpowerpc
p1211
tp1212
(dp1213
Vkernel-arch
p1214
Vpowerpc
p1215
sg183
(lp1216
g185
ass(Vbuild
p1217
g1211
tp1218
(dp1219
Vimage-file
p1220
Vvmlinux
p1221
sVvdso
p1222
I01
ss(Vimage
p1223
g1211
tp1224
(dp1225
Vconfigs
p1226
(lp1227
sVbootloaders
p1228
(lp1229
Vgrub-ieee1275
p1230
asVsuggests
p1231
(lp1232
Vmkvmlinuz
p1233
asVinstall-stem
p1234
Vvmlinux
p1235
ss(Vdescription
p1236
g1211
NVpowerpc
p1237
tp1238
(dp1239
Vhardware
p1240
Vuniprocessor 32-bit PowerPC
p1241
ss(Vdescription
p1242
g1211
NVpowerpc-smp
p1243
tp1244
(dp1245
Vhardware
p1246
Vmultiprocessor 32-bit PowerPC
p1247
ss(Vimage
p1248
g1211
NVpowerpc-smp
p1249
tp1250
(dp1251
Vconfigs
p1252
(lp1253
Vpowerpc/config.powerpc
p1254
aVpowerpc/config.powerpc-smp
p1255
ass(Vdescription
p1256
g1211
NVpowerpc64
p1257
tp1258
(dp1259
Vhardware
p1260
V64-bit PowerPC
p1261
ss(Vimage
p1262
g1211
NVpowerpc64
p1263
tp1264
(dp1265
Vconfigs
p1266
(lp1267
Vkernelarch-powerpc/config-arch-64
p1268
aVkernelarch-powerpc/config-arch-64-be
p1269
ass(g216
g1211
g185
tp1270
(dp1271
g219
(lp1272
Vpowerpc
p1273
aVpowerpc-smp
p1274
aVpowerpc64
p1275
asg223
I01
ss(Vbase
p1276
Vppc64
p1277
tp1278
(dp1279
Vdefault-flavour
p1280
Vpowerpc64
p1281
sVkernel-arch
p1282
Vpowerpc
p1283
sg183
(lp1284
g185
ass(Vbuild
p1285
g1277
tp1286
(dp1287
Vimage-file
p1288
Vvmlinux
p1289
sVvdso
p1290
I01
ss(Vimage
p1291
g1277
tp1292
(dp1293
Vconfigs
p1294
(lp1295
sVbootloaders
p1296
(lp1297
Vgrub-ieee1275
p1298
asVsuggests
p1299
(lp1300
Vmkvmlinuz
p1301
asVinstall-stem
p1302
Vvmlinux
p1303
ss(Vdescription
p1304
g1277
NVpowerpc64
p1305
tp1306
(dp1307
Vhardware
p1308
V64-bit PowerPC
p1309
ss(Vimage
p1310
g1277
NVpowerpc64
p1311
tp1312
(dp1313
Vconfigs
p1314
(lp1315
Vkernelarch-powerpc/config-arch-64
p1316
aVkernelarch-powerpc/config-arch-64-be
p1317
ass(g216
g1277
g185
tp1318
(dp1319
g219
(lp1320
Vpowerpc64
p1321
asg223
I01
ss(Vbase
p1322
Vppc64el
p1323
tp1324
(dp1325
Vdefault-flavour
p1326
Vpowerpc64le
p1327
sVkernel-arch
p1328
Vpowerpc
p1329
sg183
(lp1330
g185
ass(Vbuild
p1331
g1323
tp1332
(dp1333
Vimage-file
p1334
Vvmlinux
p1335
sVvdso
p1336
I01
ss(Vimage
p1337
g1323
tp1338
(dp1339
Vconfigs
p1340
(lp1341
sVbootloaders
p1342
(lp1343
Vgrub-ieee1275
p1344
asVsuggests
p1345
(lp1346
Vmkvmlinuz
p1347
asVinstall-stem
p1348
Vvmlinux
p1349
ss(Vdescription
p1350
g1323
NVpowerpc64le
p1351
tp1352
(dp1353
Vhardware
p1354
VLittle-endian 64-bit PowerPC
p1355
ss(Vimage
p1356
g1323
NVpowerpc64le
p1357
tp1358
(dp1359
Vconfigs
p1360
(lp1361
Vkernelarch-powerpc/config-arch-64
p1362
aVkernelarch-powerpc/config-arch-64-le
p1363
ass(g216
g1323
g185
tp1364
(dp1365
g219
(lp1366
Vpowerpc64le
p1367
asg223
I01
ss(Vbase
p1368
Vriscv64
p1369
tp1370
(dp1371
Vkernel-arch
p1372
Vriscv
p1373
sVfeaturesets
p1374
(lp1375
Vnone
p1376
ass(Vbuild
p1377
g1369
tp1378
(dp1379
Vimage-file
p1380
Varch/riscv/boot/Image
p1381
sVvdso
p1382
I01
ss(Vimage
p1383
g1369
tp1384
(dp1385
Vinstall-stem
p1386
Vvmlinux
p1387
ss(Vdescription
p1388
g1369
NVriscv64
p1389
tp1390
(dp1391
Vhardware
p1392
V64-bit RISC-V platforms
p1393
sVhardware-long
p1394
V64-bit RISC-V platforms
p1395
ss(Vbase
p1396
g1369
Vnone
p1397
tp1398
(dp1399
Vflavours
p1400
(lp1401
Vriscv64
p1402
asVdefault-flavour
p1403
Vriscv64
p1404
ss(Vbase
p1405
Vs390
p1406
tp1407
(dp1408
Vkernel-arch
p1409
Vs390
p1410
sVfeaturesets
p1411
(lp1412
ss(Vbase
p1413
Vs390x
p1414
tp1415
(dp1416
Vdefault-flavour
p1417
Vs390x
p1418
sVkernel-arch
p1419
Vs390
p1420
sg183
(lp1421
g185
ass(Vbuild
p1422
g1414
tp1423
(dp1424
Vimage-file
p1425
Varch/s390/boot/bzImage
p1426
sVvdso
p1427
I01
ss(Vimage
p1428
g1414
tp1429
(dp1430
Vbootloaders
p1431
(lp1432
Vs390-tools
p1433
asVinstall-stem
p1434
Vvmlinuz
p1435
ss(Vrelations
p1436
g1414
tp1437
(dp1438
Vheaders%gcc-8
p1439
Vlinux-compiler-gcc-8-s390
p1440
ss(Vdescription
p1441
g1414
NVs390x
p1442
tp1443
(dp1444
Vhardware
p1445
VIBM zSeries
p1446
ss(g216
g1414
g185
tp1447
(dp1448
g219
(lp1449
Vs390x
p1450
asg223
I01
ss(Vbase
p1451
Vsh3
p1452
tp1453
(dp1454
Vkernel-arch
p1455
Vsh
p1456
sVfeaturesets
p1457
(lp1458
ss(Vbase
p1459
Vsh4
p1460
tp1461
(dp1462
Vkernel-arch
p1463
Vsh
p1464
sg183
(lp1465
g185
ass(Vbuild
p1466
g1460
tp1467
(dp1468
Vimage-file
p1469
Varch/sh/boot/zImage
p1470
ss(Vimage
p1471
g1460
tp1472
(dp1473
Vinstall-stem
p1474
Vvmlinuz
p1475
ss(Vdescription
p1476
g1460
NVsh7751r
p1477
tp1478
(dp1479
Vhardware
p1480
Vsh7751r
p1481
sVhardware-long
p1482
VRenesas SH7751R R2D plus board
p1483
ss(Vdescription
p1484
g1460
NVsh7785lcr
p1485
tp1486
(dp1487
Vhardware
p1488
Vsh7785lcr
p1489
sVhardware-long
p1490
VRenesas SH7785 reference board
p1491
ss(Vimage
p1492
g1460
NVsh7785lcr
p1493
tp1494
(dp1495
Vrecommends
p1496
(lp1497
Vu-boot-tools
p1498
asVcheck-size
p1499
I4194304
ss(g216
g1460
g185
tp1500
(dp1501
g219
(lp1502
Vsh7751r
p1503
aVsh7785lcr
p1504
asg223
I01
ss(Vbase
p1505
Vsparc
p1506
tp1507
(dp1508
Vkernel-arch
p1509
Vsparc
p1510
sVfeaturesets
p1511
(lp1512
ss(Vbase
p1513
Vsparc64
p1514
tp1515
(dp1516
Vdefault-flavour
p1517
Vsparc64-smp
p1518
sVkernel-arch
p1519
Vsparc
p1520
sg183
(lp1521
g185
ass(Vbuild
p1522
g1514
tp1523
(dp1524
Vimage-file
p1525
Vvmlinux
p1526
ss(Vimage
p1527
g1514
tp1528
(dp1529
Vconfigs
p1530
(lp1531
sVbootloaders
p1532
(lp1533
Vgrub-ieee1275
p1534
asVsuggests
p1535
(lp1536
Vfdutils
p1537
asVinstall-stem
p1538
Vvmlinux
p1539
ss(Vdescription
p1540
g1514
NVsparc64
p1541
tp1542
(dp1543
Vhardware
p1544
Vuniprocessor 64-bit UltraSPARC
p1545
ss(Vimage
p1546
g1514
NVsparc64
p1547
tp1548
(dp1549
Vconfigs
p1550
(lp1551
Vkernelarch-sparc/config-up
p1552
ass(Vdescription
p1553
g1514
NVsparc64-smp
p1554
tp1555
(dp1556
Vhardware
p1557
Vmultiprocessor 64-bit UltraSPARC
p1558
ss(Vimage
p1559
g1514
NVsparc64-smp
p1560
tp1561
(dp1562
Vconfigs
p1563
(lp1564
Vkernelarch-sparc/config-smp
p1565
ass(g216
g1514
g185
tp1566
(dp1567
g219
(lp1568
Vsparc64
p1569
aVsparc64-smp
p1570
asg223
I01
ss(Vbase
p1571
Vx32
p1572
tp1573
(dp1574
Vkernel-arch
p1575
Vx86
p1576
sVfeaturesets
p1577
(lp1578
ss(Vabi
p1579
NVrt
p1580
tp1581
(dp1582
Vignore-changes
p1583
(lp1584
V*
p1585
ass(Vdescription
p1586
Ng1580
tp1587
(dp1588
Vpart-long-rt
p1589
VThis kernel includes the PREEMPT_RT realtime patch set.
p1590
sVpart-short-rt
p1591
VPREEMPT_RT
p1592
sVparts
p1593
(lp1594
Vrt
p1595
ass(Vversion
p1596
tp1597
(dp1598
Vsource
p1599
V5.10.4-1co1
p1600
sVupstream
p1601
V5.10
p1602
sVabiname_base
p1603
V5.10.0
p1604
sVabiname
p1605
V5.10.0-1
p1606
ss.