cdebian_linux.config
ConfigCore
p0
(tRp1
(Vpackages
p2
tp3
(dp4
Vinstaller
p5
I00
ss(Vabi
p6
tp7
(dp8
Vabiname
p9
V1
p10
sVignore-changes
p11
(lp12
V__cpuhp_*
p13
aVbpf_analyzer
p14
aVcxl_*
p15
aVdax_flush
p16
aVieee80211_nullfunc_get
p17
aVinet_add_protocol
p18
aVinet_del_protocol
p19
aViommu_device_*
p20
aVmm_iommu_*
p21
aVmv_mbus_*
p22
aVperf_*
p23
aVregister_cxl_calls
p24
aVregister_key_type
p25
aVunregister_cxl_calls
p26
aV*_hw_breakpoint
p27
aVmodule:drivers/crypto/ccp/*
p28
aVmodule:drivers/hv/*
p29
aVmodule:drivers/gpu/drm/sun4i/*
p30
aVmodule:drivers/iio/**
p31
aVmodule:drivers/misc/cxl/*
p32
aVmodule:drivers/mtd/nand/*
p33
aVmodule:drivers/net/ethernet/**
p34
aVmodule:drivers/net/wireless/**
p35
aVmodule:drivers/nvdimm/*
p36
aVmodule:drivers/nvme/**
p37
aVmodule:drivers/power/supply/bq27xxx_battery
p38
aVmodule:drivers/scsi/cxgbi/*
p39
aVmodule:drivers/scsi/libiscs*
p40
aVmodule:drivers/scsi/qla2xxx/qla2xxx
p41
aVmodule:drivers/scsi/ufs/*
p42
aVmodule:drivers/target/**
p43
aVmodule:drivers/usb/chipidea/**
p44
aVmodule:drivers/usb/gadget/**
p45
aVmodule:drivers/usb/host/**
p46
aVmodule:drivers/usb/musb/**
p47
aVmodule:fs/nfs/**
p48
aVmodule:net/ceph/libceph
p49
aVmodule:net/l2tp/**
p50
aVmodule:net/rxrpc/rxrpc
p51
aVmodule:net/sctp/**
p52
aVmodule:sound/core/seq/**
p53
aVmodule:sound/firewire/snd-firewire-lib
p54
aVmodule:sound/pci/hda/*
p55
aVbtree_*
p56
aVvisitor*
p57
aVcan_rx_register
p58
aVip6_xmit
p59
aVmodule:net/dccp/dccp
p60
aVmodule:net/rds/rds
p61
aVdevfreq_*
p62
aVdevm_devfreq_*
p63
aVupdate_devfreq
p64
aVmodule:drivers/infiniband/**
p65
aVacpi_ec_add_query_handler
p66
aVacpi_ec_remove_query_handler
p67
aVfirst_ec
p68
aVdebugfs_create_automount
p69
aVmodule:drivers/iio/imu/inv_mpu6050/*
p70
aVdrm_crtc_accurate_vblank_count
p71
aVacpi_nfit_desc_init
p72
aVacpi_nfit_init
p73
aVloop_register_transfer
p74
aVxen_xlate_*
p75
aVnf_nat_masquerade_ipv4_register_notifier
p76
aVnf_nat_masquerade_ipv6_register_notifier
p77
aVmodule:drivers/scsi/hisi_sas/*
p78
aV__gfn_*
p79
aV__kvmhv_*
p80
aV__kvm_*
p81
aV__xive_vm_h_*
p82
aVgfn_*
p83
aVh_ipi_redirect
p84
aVhalt_poll_ns*
p85
aVkvm_*
p86
aVkvmhv_*
p87
aVkvmppc_*
p88
aVmark_page_dirty
p89
aVvcpu_*
p90
aVmodule:arch/powerpc/kvm/*
p91
aVmodule:arch/s390/kvm/*
p92
aVmodule:arch/x86/kvm/*
p93
ass(Vbase
p94
tp95
(dp96
Varches
p97
(lp98
Valpha
p99
aVamd64
p100
aVarm64
p101
aVarm64ilp32
p102
aVarmel
p103
aVarmhf
p104
aVhppa
p105
aVi386
p106
aVia64
p107
aVm68k
p108
aVmips
p109
aVmips64
p110
aVmips64el
p111
aVmips64r6
p112
aVmips64r6el
p113
aVmipsel
p114
aVmipsn32
p115
aVmipsn32el
p116
aVmipsn32r6
p117
aVmipsn32r6el
p118
aVmipsr6
p119
aVmipsr6el
p120
aVpowerpc
p121
aVppc64
p122
aVppc64el
p123
aVriscv64
p124
aVs390
p125
aVs390x
p126
aVsh3
p127
aVsh4
p128
aVsparc
p129
aVsparc64
p130
aVx32
p131
asVcompiler
p132
Vgcc-8
p133
sVfeaturesets
p134
(lp135
Vnone
p136
aVrt
p137
ass(Vbuild
p138
tp139
(dp140
Vdebug-info
p141
I01
sVsigned-code
p142
I00
ss(Vbase
p143
NVrt
p144
tp145
(dp146
Venabled
p147
I00
ss(Vdescription
p148
tp149
(dp150
Vpart-long-up
p151
VThis kernel is not suitable for SMP (multi-processor,\u000amulti-core or hyper-threaded) systems.
p152
ss(Vimage
p153
tp154
(dp155
Vinitramfs-generators
p156
(lp157
Vinitramfs-tools
p158
aVinitramfs-fallback
p159
asVbreaks
p160
(lp161
Vwireless-regdb (<< 2019.06.03-1~)
p162
asVrecommends
p163
(lp164
Vapparmor
p165
ass(Vrelations
p166
tp167
(dp168
Vgcc-8
p169
Vgcc-8 <!stage1 !cross !pkg.linux.nokernel>, gcc-8-@gnu-type-package@ <!stage1 cross !pkg.linux.nokernel>
p170
sVinitramfs-fallback
p171
Vlinux-initramfs-tool
p172
sVinitramfs-tools
p173
Vinitramfs-tools (>= 0.120+deb8u2)
p174
ss(Vbase
p175
Valpha
p176
tp177
(dp178
Vkernel-arch
p179
Valpha
p180
sVfeaturesets
p181
(lp182
Vnone
p183
ass(Vbuild
p184
g176
tp185
(dp186
Vimage-file
p187
Varch/alpha/boot/vmlinux.gz
p188
ss(Vimage
p189
g176
tp190
(dp191
Vsuggests
p192
(lp193
Vaboot
p194
aVfdutils
p195
asVinstall-stem
p196
Vvmlinuz
p197
ss(Vdescription
p198
g176
NValpha-generic
p199
tp200
(dp201
Vhardware
p202
VAlpha
p203
sVhardware-long
p204
VDEC Alpha systems with extended kernel start address (Wildfire, Titan, Marvel)
p205
ss(Vdescription
p206
g176
NValpha-smp
p207
tp208
(dp209
Vhardware
p210
VAlpha SMP
p211
sVhardware-long
p212
VDEC Alpha SMP systems with extended kernel start address (Wildfire, Titan, Marvel)
p213
ss(Vbase
p214
g176
g183
tp215
(dp216
Vflavours
p217
(lp218
Valpha-generic
p219
aValpha-smp
p220
asVimplicit-flavour
p221
I01
ss(Vbase
p222
Vamd64
p223
tp224
(dp225
Vfeaturesets
p226
(lp227
Vnone
p228
asVkernel-arch
p229
Vx86
p230
ss(Vbuild
p231
g223
tp232
(dp233
Vimage-file
p234
Varch/x86/boot/bzImage
p235
sVsigned-code
p236
I00
sVvdso
p237
I01
ss(Vimage
p238
g223
tp239
(dp240
Vbootloaders
p241
(lp242
Vgrub-pc
p243
aVgrub-efi-amd64
p244
aVextlinux
p245
asVinstall-stem
p246
Vvmlinuz
p247
sVbreaks
p248
(lp249
Vxserver-xorg-input-vmmouse (<< 1:13.0.99)
p250
ass(Vrelations
p251
g223
tp252
(dp253
Vheaders%gcc-8
p254
Vlinux-compiler-gcc-8-x86
p255
ss(Vdescription
p256
g223
NVamd64
p257
tp258
(dp259
Vhardware
p260
V64-bit PCs
p261
sVhardware-long
p262
VPCs with AMD64, Intel 64 or VIA Nano processors
p263
ss(Vdescription
p264
g223
NVcloud-amd64
p265
tp266
(dp267
Vhardware
p268
Vx86-64 cloud
p269
sVhardware-long
p270
VAmazon EC2, Google Compute Engine and Microsoft Azure cloud platforms
p271
ss(Vbase
p272
g223
Vnone
p273
tp274
(dp275
Vflavours
p276
(lp277
Vamd64
p278
ass(Vimage
p279
g223
g273
Vcloud-amd64
p280
tp281
(dp282
Vconfigs
p283
(lp284
Vconfig.cloud
p285
aVamd64/config.cloud-amd64
p286
ass(Vbase
p287
Varm64
p288
tp289
(dp290
Vkernel-arch
p291
Varm64
p292
sVfeaturesets
p293
(lp294
Vnone
p295
ass(Vbuild
p296
g288
tp297
(dp298
Vimage-file
p299
Varch/arm64/boot/Image
p300
sVsigned-code
p301
I00
sVvdso
p302
I01
ss(Vimage
p303
g288
tp304
(dp305
Vinstall-stem
p306
Vvmlinuz
p307
sVbreaks
p308
(lp309
Vlibmozjs185-1.0
p310
aVlibmozjs-24-0 (<< 24.2.0-5.1~)
p311
ass(Vdescription
p312
g288
NVarm64
p313
tp314
(dp315
Vhardware
p316
V64-bit ARMv8 machines
p317
ss(Vdescription
p318
g288
NVcloud-arm64
p319
tp320
(dp321
Vhardware
p322
Varm64 cloud
p323
sVhardware-long
p324
Vcloud platforms supporting arm64 virtual machines
p325
ss(Vimage
p326
g288
NVarm64
p327
tp328
(dp329
s(Vbase
p330
g288
Vnone
p331
tp332
(dp333
Vflavours
p334
(lp335
Varm64
p336
aVcloud-arm64
p337
ass(Vimage
p338
g288
g331
Vcloud-arm64
p339
tp340
(dp341
Vconfigs
p342
(lp343
Vconfig.cloud
p344
aVarm64/config.cloud-arm64
p345
ass(Vbase
p346
Varm64ilp32
p347
tp348
(dp349
Vkernel-arch
p350
Varm64
p351
sVfeaturesets
p352
(lp353
ss(Vbase
p354
Varmel
p355
tp356
(dp357
Vkernel-arch
p358
Varm
p359
sg181
(lp360
g183
ass(Vbuild
p361
g355
tp362
(dp363
Vimage-file
p364
Varch/arm/boot/zImage
p365
sVuncompressed-image-file
p366
Varch/arm/boot/Image
p367
ss(Vimage
p368
g355
tp369
(dp370
Vinstall-stem
p371
Vvmlinuz
p372
ss(Vrelations
p373
g355
tp374
(dp375
Vheaders%gcc-8
p376
Vlinux-compiler-gcc-8-arm
p377
ss(Vdescription
p378
g355
NVmarvell
p379
tp380
(dp381
Vhardware
p382
VMarvell Kirkwood/Orion
p383
sVhardware-long
p384
VMarvell Kirkwood and Orion based systems (https://wiki.debian.org/ArmEabiPort#Supported_hardware)
p385
ss(Vdescription
p386
g355
NVrpi
p387
tp388
(dp389
Vhardware
p390
VRaspberry Pi and Pi Zero
p391
sVhardware-long
p392
VRaspberry Pi, Raspberry Pi Zero based systems
p393
ss(Vimage
p394
g355
NVmarvell
p395
tp396
(dp397
Vrecommends
p398
(lp399
Vu-boot-tools
p400
asVcheck-size
p401
I2729712
sVcheck-size-with-dtb
p402
I01
sVcheck-uncompressed-size
p403
I7340032
sVbreaks
p404
(lp405
Vflash-kernel (<< 3.57~)
p406
ass(g214
g355
g183
tp407
(dp408
g217
(lp409
Vmarvell
p410
aVrpi
p411
asg221
I01
ss(Vbase
p412
Varmhf
p413
tp414
(dp415
Vfeaturesets
p416
(lp417
Vnone
p418
asVkernel-arch
p419
Varm
p420
ss(Vbuild
p421
g413
tp422
(dp423
Vimage-file
p424
Varch/arm/boot/zImage
p425
sVvdso
p426
I01
ss(Vimage
p427
g413
tp428
(dp429
Vinstall-stem
p430
Vvmlinuz
p431
ss(Vrelations
p432
g413
tp433
(dp434
Vheaders%gcc-8
p435
Vlinux-compiler-gcc-8-arm
p436
ss(Vdescription
p437
g413
NVarmmp
p438
tp439
(dp440
Vhardware
p441
VARMv7 multiplatform compatible SoCs
p442
sVhardware-long
p443
VARMv7 multiplatform kernel. See\u000ahttps://wiki.debian.org/DebianKernel/ARMMP for details of supported\u000aplatforms
p444
ss(Vdescription
p445
g413
NVarmmp-lpae
p446
tp447
(dp448
Vhardware
p449
VARMv7 multiplatform compatible SoCs supporting LPAE
p450
sVhardware-long
p451
VARMv7 multiplatform kernel supporting LPAE. See\u000ahttps://wiki.debian.org/DebianKernel/ARMMP for details of supported\u000aplatforms.
p452
ss(Vbase
p453
g413
Vnone
p454
tp455
(dp456
Vflavours
p457
(lp458
Varmmp
p459
aVarmmp-lpae
p460
ass(Vbase
p461
Vhppa
p462
tp463
(dp464
Vkernel-arch
p465
Vparisc
p466
sg181
(lp467
g183
ass(Vbuild
p468
g462
tp469
(dp470
Vimage-file
p471
Varch/parisc/boot/bzImage
p472
sVdebug-info
p473
I00
ss(Vimage
p474
g462
tp475
(dp476
Vsuggests
p477
(lp478
Vpalo
p479
asVinstall-stem
p480
Vvmlinuz
p481
ss(Vdescription
p482
g462
NVparisc
p483
tp484
(dp485
Vhardware
p486
V32-bit PA-RISC
p487
sVhardware-long
p488
VHP PA-RISC 32-bit systems with max 4 GB RAM
p489
ss(Vbase
p490
g462
NVparisc64
p491
tp492
(dp493
Vcflags
p494
V-fno-cse-follow-jumps
p495
sVoverride-host-type
p496
Vhppa64-linux-gnu
p497
ss(Vdescription
p498
g462
NVparisc64
p499
tp500
(dp501
Vhardware
p502
V64-bit PA-RISC
p503
sVhardware-long
p504
VHP PA-RISC 64-bit systems with support for more than 4 GB RAM
p505
ss(Vrelations
p506
g462
tp507
(dp508
Vgcc-8
p509
Vgcc-8 <!stage1 !cross !pkg.linux.nokernel>, gcc-8-hppa-linux-gnu <!stage1 cross !pkg.linux.nokernel>, binutils-hppa64-linux-gnu <!stage1 !pkg.linux.nokernel>, gcc-8-hppa64-linux-gnu <!stage1 !pkg.linux.nokernel>
p510
ss(g214
g462
g183
tp511
(dp512
g217
(lp513
Vparisc
p514
aVparisc64
p515
asg221
I01
ss(Vbase
p516
Vi386
p517
tp518
(dp519
Vfeaturesets
p520
(lp521
Vnone
p522
aVrt
p523
asVkernel-arch
p524
Vx86
p525
ss(Vbuild
p526
g517
tp527
(dp528
Vimage-file
p529
Varch/x86/boot/bzImage
p530
sVsigned-code
p531
I01
sVvdso
p532
I01
ss(Vdescription
p533
g517
tp534
(dp535
Vpart-long-pae
p536
VThis kernel requires PAE (Physical Address Extension).\u000aThis feature is supported by the Intel Pentium Pro/II/III/4/4M/D, Xeon,\u000aCore and Atom; AMD Geode NX, Athlon (K7), Duron, Opteron, Sempron,\u000aTurion or Phenom; Transmeta Efficeon; VIA C7; and some other processors.
p537
ss(Vimage
p538
g517
tp539
(dp540
Vbootloaders
p541
(lp542
Vgrub-pc
p543
aVgrub-efi-ia32
p544
aVextlinux
p545
asVinstall-stem
p546
Vvmlinuz
p547
sVbreaks
p548
(lp549
Vxserver-xorg-input-vmmouse (<< 1:13.0.99)
p550
ass(Vrelations
p551
g517
tp552
(dp553
Vheaders%gcc-8
p554
Vlinux-compiler-gcc-8-x86
p555
ss(Vdescription
p556
g517
NV686
p557
tp558
(dp559
Vhardware
p560
Volder PCs
p561
sVhardware-long
p562
VPCs with one or more processors not supporting PAE
p563
ss(Vdescription
p564
g517
NV686-pae
p565
tp566
(dp567
Vhardware
p568
Vmodern PCs
p569
sVhardware-long
p570
VPCs with one or more processors supporting PAE
p571
sVparts
p572
(lp573
Vpae
p574
ass(Vbase
p575
g517
Vnone
p576
tp577
(dp578
Vflavours
p579
(lp580
V686
p581
aV686-pae
p582
ass(Vbase
p583
g517
Vrt
p584
tp585
(dp586
Vflavours
p587
(lp588
V686-pae
p589
ass(Vbase
p590
Via64
p591
tp592
(dp593
Vkernel-arch
p594
Via64
p595
sg181
(lp596
g183
ass(Vbuild
p597
g591
tp598
(dp599
Vimage-file
p600
Vvmlinux.gz
p601
ss(Vimage
p602
g591
tp603
(dp604
Vbootloaders
p605
(lp606
Vgrub-efi-ia64
p607
asVinstall-stem
p608
Vvmlinuz
p609
ss(Vdescription
p610
g591
NVitanium
p611
tp612
(dp613
Vhardware
p614
VItanium (Merced)
p615
sVhardware-long
p616
Vsystems with original Itanium (Merced) processors
p617
ss(Vdescription
p618
g591
NVmckinley
p619
tp620
(dp621
Vhardware
p622
VItanium 2+
p623
sVhardware-long
p624
Vsystems with Itanium 2 or 9300/9500/9700-series processors
p625
ss(g214
g591
g183
tp626
(dp627
g217
(lp628
Vitanium
p629
aVmckinley
p630
asg221
I01
ss(Vbase
p631
Vm68k
p632
tp633
(dp634
Vcflags
p635
V-ffreestanding
p636
sVkernel-arch
p637
Vm68k
p638
sg181
(lp639
g183
ass(Vbuild
p640
g632
tp641
(dp642
Vimage-file
p643
Vvmlinux
p644
ss(Vimage
p645
g632
tp646
(dp647
Vsuggests
p648
(lp649
Vvmelilo
p650
aVfdutils
p651
asVinstall-stem
p652
Vvmlinux
p653
ss(Vdescription
p654
g632
NVm68k
p655
tp656
(dp657
Vhardware
p658
VMotorola MC68020+ family
p659
ss(g214
g632
g183
tp660
(dp661
g217
(lp662
Vm68k
p663
asg221
I01
ss(Vbase
p664
Vmips
p665
tp666
(dp667
Vkernel-arch
p668
Vmips
p669
sg181
(lp670
g183
ass(Vbuild
p671
g665
tp672
(dp673
Vimage-file
p674
Vvmlinuz
p675
ss(Vimage
p676
g665
tp677
(dp678
Vinstall-stem
p679
Vvmlinuz
p680
ss(Vdescription
p681
g665
NV4kc-malta
p682
tp683
(dp684
Vhardware
p685
VMIPS Malta
p686
sVhardware-long
p687
VMIPS Malta boards
p688
ss(Vimage
p689
g665
NV4kc-malta
p690
tp691
(dp692
Vconfigs
p693
(lp694
Vkernelarch-mips/config.malta
p695
aVkernelarch-mips/config.mips32r2
p696
ass(Vdescription
p697
g665
NV5kc-malta
p698
tp699
(dp700
Vhardware
p701
VMIPS Malta (64-bit)
p702
sVhardware-long
p703
VMIPS Malta boards (64-bit)
p704
ss(Vimage
p705
g665
NV5kc-malta
p706
tp707
(dp708
Vconfigs
p709
(lp710
Vkernelarch-mips/config.malta
p711
aVkernelarch-mips/config.mips64r2
p712
ass(Vdescription
p713
g665
NVocteon
p714
tp715
(dp716
Vhardware
p717
VOcteon
p718
sVhardware-long
p719
VCavium Networks Octeon
p720
ss(Vbuild
p721
g665
NVocteon
p722
tp723
(dp724
Vimage-file
p725
Vvmlinux
p726
ss(Vimage
p727
g665
NVocteon
p728
tp729
(dp730
Vinstall-stem
p731
Vvmlinux
p732
sVconfigs
p733
(lp734
Vkernelarch-mips/config.octeon
p735
ass(g214
g665
g183
tp736
(dp737
g217
(lp738
V4kc-malta
p739
aV5kc-malta
p740
aVocteon
p741
asg221
I01
ss(Vbase
p742
Vmips64
p743
tp744
(dp745
Vkernel-arch
p746
Vmips
p747
sg181
(lp748
g183
ass(Vbuild
p749
g743
tp750
(dp751
Vimage-file
p752
Vvmlinuz
p753
ss(Vimage
p754
g743
tp755
(dp756
Vinstall-stem
p757
Vvmlinuz
p758
ss(Vdescription
p759
g743
NV5kc-malta
p760
tp761
(dp762
Vhardware
p763
VMIPS Malta
p764
sVhardware-long
p765
VMIPS Malta boards
p766
ss(Vimage
p767
g743
NV5kc-malta
p768
tp769
(dp770
Vconfigs
p771
(lp772
Vkernelarch-mips/config.malta
p773
aVkernelarch-mips/config.mips64r2
p774
ass(Vdescription
p775
g743
NVocteon
p776
tp777
(dp778
Vhardware
p779
VOcteon
p780
sVhardware-long
p781
VCavium Networks Octeon
p782
ss(Vbuild
p783
g743
NVocteon
p784
tp785
(dp786
Vimage-file
p787
Vvmlinux
p788
ss(Vimage
p789
g743
NVocteon
p790
tp791
(dp792
Vinstall-stem
p793
Vvmlinux
p794
sVconfigs
p795
(lp796
Vkernelarch-mips/config.octeon
p797
ass(g214
g743
g183
tp798
(dp799
g217
(lp800
V5kc-malta
p801
aVocteon
p802
asg221
I01
ss(Vbase
p803
Vmips64el
p804
tp805
(dp806
Vkernel-arch
p807
Vmips
p808
sg181
(lp809
g183
ass(Vbuild
p810
g804
tp811
(dp812
Vimage-file
p813
Vvmlinuz
p814
ss(Vimage
p815
g804
tp816
(dp817
Vinstall-stem
p818
Vvmlinuz
p819
ss(Vdescription
p820
g804
NV5kc-malta
p821
tp822
(dp823
Vhardware
p824
VMIPS Malta
p825
sVhardware-long
p826
VMIPS Malta boards
p827
ss(Vimage
p828
g804
NV5kc-malta
p829
tp830
(dp831
Vconfigs
p832
(lp833
Vkernelarch-mips/config.malta
p834
aVkernelarch-mips/config.mips64r2
p835
ass(Vdescription
p836
g804
NVloongson-3
p837
tp838
(dp839
Vhardware
p840
VLoongson 3A/3B
p841
sVhardware-long
p842
VLoongson 3A or 3B based systems (e.g. from Loongson or Lemote)
p843
ss(Vimage
p844
g804
NVloongson-3
p845
tp846
(dp847
Vconfigs
p848
(lp849
Vkernelarch-mips/config.loongson-3
p850
ass(Vdescription
p851
g804
NVocteon
p852
tp853
(dp854
Vhardware
p855
VOcteon
p856
sVhardware-long
p857
VCavium Networks Octeon
p858
ss(Vbuild
p859
g804
NVocteon
p860
tp861
(dp862
Vimage-file
p863
Vvmlinux
p864
ss(Vimage
p865
g804
NVocteon
p866
tp867
(dp868
Vinstall-stem
p869
Vvmlinux
p870
sVconfigs
p871
(lp872
Vkernelarch-mips/config.octeon
p873
ass(g214
g804
g183
tp874
(dp875
g217
(lp876
V5kc-malta
p877
aVloongson-3
p878
aVocteon
p879
asg221
I01
ss(Vbase
p880
Vmips64r6
p881
tp882
(dp883
Vkernel-arch
p884
Vmips
p885
sg181
(lp886
g183
ass(Vbuild
p887
g881
tp888
(dp889
Vimage-file
p890
Vvmlinux
p891
ss(Vimage
p892
g881
tp893
(dp894
Vinstall-stem
p895
Vvmlinux
p896
ss(Vdescription
p897
g881
NVmips64r6
p898
tp899
(dp900
Vhardware
p901
VMIPS R6 (64 bit, big endian)
p902
sVhardware-long
p903
VMIPS R6 (64 bit, big endian)
p904
ss(Vimage
p905
g881
NVmips64r6
p906
tp907
(dp908
Vconfigs
p909
(lp910
Vkernelarch-mips/config.boston
p911
aVkernelarch-mips/config.mips64r6
p912
ass(g214
g881
g183
tp913
(dp914
g217
(lp915
Vmips64r6
p916
asg221
I01
ss(Vbase
p917
Vmips64r6el
p918
tp919
(dp920
Vkernel-arch
p921
Vmips
p922
sg181
(lp923
g183
ass(Vbuild
p924
g918
tp925
(dp926
Vimage-file
p927
Vvmlinux
p928
ss(Vimage
p929
g918
tp930
(dp931
Vinstall-stem
p932
Vvmlinux
p933
ss(Vdescription
p934
g918
NVmips64r6el
p935
tp936
(dp937
Vhardware
p938
VMIPS R6 (64 bit, little endian)
p939
sVhardware-long
p940
VMIPS R6 (64 bit, little endian)
p941
ss(Vimage
p942
g918
NVmips64r6el
p943
tp944
(dp945
Vconfigs
p946
(lp947
Vkernelarch-mips/config.boston
p948
aVkernelarch-mips/config.mips64r6
p949
ass(g214
g918
g183
tp950
(dp951
g217
(lp952
Vmips64r6el
p953
asg221
I01
ss(Vbase
p954
Vmipsel
p955
tp956
(dp957
Vkernel-arch
p958
Vmips
p959
sg181
(lp960
g183
ass(Vbuild
p961
g955
tp962
(dp963
Vimage-file
p964
Vvmlinuz
p965
ss(Vimage
p966
g955
tp967
(dp968
Vinstall-stem
p969
Vvmlinuz
p970
ss(Vdescription
p971
g955
NV4kc-malta
p972
tp973
(dp974
Vhardware
p975
VMIPS Malta
p976
sVhardware-long
p977
VMIPS Malta boards
p978
ss(Vimage
p979
g955
NV4kc-malta
p980
tp981
(dp982
Vconfigs
p983
(lp984
Vkernelarch-mips/config.malta
p985
aVkernelarch-mips/config.mips32r2
p986
ass(Vdescription
p987
g955
NV5kc-malta
p988
tp989
(dp990
Vhardware
p991
VMIPS Malta (64-bit)
p992
sVhardware-long
p993
VMIPS Malta boards (64-bit)
p994
ss(Vimage
p995
g955
NV5kc-malta
p996
tp997
(dp998
Vconfigs
p999
(lp1000
Vkernelarch-mips/config.malta
p1001
aVkernelarch-mips/config.mips64r2
p1002
ass(Vdescription
p1003
g955
NVloongson-3
p1004
tp1005
(dp1006
Vhardware
p1007
VLoongson 3A/3B
p1008
sVhardware-long
p1009
VLoongson 3A or 3B based systems (e.g. from Loongson or Lemote)
p1010
ss(Vimage
p1011
g955
NVloongson-3
p1012
tp1013
(dp1014
Vconfigs
p1015
(lp1016
Vkernelarch-mips/config.loongson-3
p1017
ass(Vdescription
p1018
g955
NVocteon
p1019
tp1020
(dp1021
Vhardware
p1022
VOcteon
p1023
sVhardware-long
p1024
VCavium Networks Octeon
p1025
ss(Vbuild
p1026
g955
NVocteon
p1027
tp1028
(dp1029
Vimage-file
p1030
Vvmlinux
p1031
ss(Vimage
p1032
g955
NVocteon
p1033
tp1034
(dp1035
Vinstall-stem
p1036
Vvmlinux
p1037
sVconfigs
p1038
(lp1039
Vkernelarch-mips/config.octeon
p1040
ass(g214
g955
g183
tp1041
(dp1042
g217
(lp1043
V4kc-malta
p1044
aV5kc-malta
p1045
aVloongson-3
p1046
aVocteon
p1047
asg221
I01
ss(Vbase
p1048
Vmipsn32
p1049
tp1050
(dp1051
Vkernel-arch
p1052
Vmips
p1053
sVfeaturesets
p1054
(lp1055
ss(Vbase
p1056
Vmipsn32el
p1057
tp1058
(dp1059
Vkernel-arch
p1060
Vmips
p1061
sVfeaturesets
p1062
(lp1063
ss(Vbase
p1064
Vmipsn32r6
p1065
tp1066
(dp1067
Vkernel-arch
p1068
Vmips
p1069
sVfeaturesets
p1070
(lp1071
ss(Vbase
p1072
Vmipsn32r6el
p1073
tp1074
(dp1075
Vkernel-arch
p1076
Vmips
p1077
sVfeaturesets
p1078
(lp1079
ss(Vbase
p1080
Vmipsr6
p1081
tp1082
(dp1083
Vkernel-arch
p1084
Vmips
p1085
sg181
(lp1086
g183
ass(Vbuild
p1087
g1081
tp1088
(dp1089
Vimage-file
p1090
Vvmlinux
p1091
ss(Vimage
p1092
g1081
tp1093
(dp1094
Vinstall-stem
p1095
Vvmlinux
p1096
ss(Vdescription
p1097
g1081
NVmips32r6
p1098
tp1099
(dp1100
Vhardware
p1101
VMIPS R6 (32 bit, big endian)
p1102
sVhardware-long
p1103
VMIPS R6 (32 bit, big endian)
p1104
ss(Vimage
p1105
g1081
NVmips32r6
p1106
tp1107
(dp1108
Vconfigs
p1109
(lp1110
Vkernelarch-mips/config.boston
p1111
aVkernelarch-mips/config.mips32r6
p1112
ass(Vdescription
p1113
g1081
NVmips64r6
p1114
tp1115
(dp1116
Vhardware
p1117
VMIPS R6 (64 bit, big endian)
p1118
sVhardware-long
p1119
VMIPS R6 (64 bit, big endian)
p1120
ss(Vimage
p1121
g1081
NVmips64r6
p1122
tp1123
(dp1124
Vconfigs
p1125
(lp1126
Vkernelarch-mips/config.boston
p1127
aVkernelarch-mips/config.mips64r6
p1128
ass(g214
g1081
g183
tp1129
(dp1130
g217
(lp1131
Vmips32r6
p1132
aVmips64r6
p1133
asg221
I01
ss(Vbase
p1134
Vmipsr6el
p1135
tp1136
(dp1137
Vkernel-arch
p1138
Vmips
p1139
sg181
(lp1140
g183
ass(Vbuild
p1141
g1135
tp1142
(dp1143
Vimage-file
p1144
Vvmlinux
p1145
ss(Vimage
p1146
g1135
tp1147
(dp1148
Vinstall-stem
p1149
Vvmlinux
p1150
ss(Vdescription
p1151
g1135
NVmips32r6el
p1152
tp1153
(dp1154
Vhardware
p1155
VMIPS R6 (32 bit, little endian)
p1156
sVhardware-long
p1157
VMIPS R6 (32 bit, little endian)
p1158
ss(Vimage
p1159
g1135
NVmips32r6el
p1160
tp1161
(dp1162
Vconfigs
p1163
(lp1164
Vkernelarch-mips/config.boston
p1165
aVkernelarch-mips/config.mips32r6
p1166
ass(Vdescription
p1167
g1135
NVmips64r6el
p1168
tp1169
(dp1170
Vhardware
p1171
VMIPS R6 (64 bit, little endian)
p1172
sVhardware-long
p1173
VMIPS R6 (64 bit, little endian)
p1174
ss(Vimage
p1175
g1135
NVmips64r6el
p1176
tp1177
(dp1178
Vconfigs
p1179
(lp1180
Vkernelarch-mips/config.boston
p1181
aVkernelarch-mips/config.mips64r6
p1182
ass(g214
g1135
g183
tp1183
(dp1184
g217
(lp1185
Vmips32r6el
p1186
aVmips64r6el
p1187
asg221
I01
ss(Vbase
p1188
Vpowerpc
p1189
tp1190
(dp1191
Vkernel-arch
p1192
Vpowerpc
p1193
sg181
(lp1194
g183
ass(Vbuild
p1195
g1189
tp1196
(dp1197
Vimage-file
p1198
Vvmlinux
p1199
sVvdso
p1200
I01
ss(Vimage
p1201
g1189
tp1202
(dp1203
Vconfigs
p1204
(lp1205
sVbootloaders
p1206
(lp1207
Vgrub-ieee1275
p1208
asVsuggests
p1209
(lp1210
Vmkvmlinuz
p1211
asVinstall-stem
p1212
Vvmlinux
p1213
ss(Vdescription
p1214
g1189
NVpowerpc
p1215
tp1216
(dp1217
Vhardware
p1218
Vuniprocessor 32-bit PowerPC
p1219
ss(Vdescription
p1220
g1189
NVpowerpc-smp
p1221
tp1222
(dp1223
Vhardware
p1224
Vmultiprocessor 32-bit PowerPC
p1225
ss(Vimage
p1226
g1189
NVpowerpc-smp
p1227
tp1228
(dp1229
Vconfigs
p1230
(lp1231
Vpowerpc/config.powerpc
p1232
aVpowerpc/config.powerpc-smp
p1233
ass(Vdescription
p1234
g1189
NVpowerpc64
p1235
tp1236
(dp1237
Vhardware
p1238
V64-bit PowerPC
p1239
ss(Vimage
p1240
g1189
NVpowerpc64
p1241
tp1242
(dp1243
Vconfigs
p1244
(lp1245
Vkernelarch-powerpc/config-arch-64
p1246
aVkernelarch-powerpc/config-arch-64-be
p1247
ass(g214
g1189
g183
tp1248
(dp1249
g217
(lp1250
Vpowerpc
p1251
aVpowerpc-smp
p1252
aVpowerpc64
p1253
asg221
I01
ss(Vbase
p1254
Vppc64
p1255
tp1256
(dp1257
Vkernel-arch
p1258
Vpowerpc
p1259
sg181
(lp1260
g183
ass(Vbuild
p1261
g1255
tp1262
(dp1263
Vimage-file
p1264
Vvmlinux
p1265
sVvdso
p1266
I01
ss(Vimage
p1267
g1255
tp1268
(dp1269
Vconfigs
p1270
(lp1271
sVbootloaders
p1272
(lp1273
Vgrub-ieee1275
p1274
asVsuggests
p1275
(lp1276
Vmkvmlinuz
p1277
asVinstall-stem
p1278
Vvmlinux
p1279
ss(Vdescription
p1280
g1255
NVpowerpc64
p1281
tp1282
(dp1283
Vhardware
p1284
V64-bit PowerPC
p1285
ss(Vimage
p1286
g1255
NVpowerpc64
p1287
tp1288
(dp1289
Vconfigs
p1290
(lp1291
Vkernelarch-powerpc/config-arch-64
p1292
aVkernelarch-powerpc/config-arch-64-be
p1293
ass(g214
g1255
g183
tp1294
(dp1295
g217
(lp1296
Vpowerpc64
p1297
asg221
I01
ss(Vbase
p1298
Vppc64el
p1299
tp1300
(dp1301
Vkernel-arch
p1302
Vpowerpc
p1303
sg181
(lp1304
g183
ass(Vbuild
p1305
g1299
tp1306
(dp1307
Vimage-file
p1308
Vvmlinux
p1309
sVvdso
p1310
I01
ss(Vimage
p1311
g1299
tp1312
(dp1313
Vconfigs
p1314
(lp1315
sVbootloaders
p1316
(lp1317
Vgrub-ieee1275
p1318
asVsuggests
p1319
(lp1320
Vmkvmlinuz
p1321
asVinstall-stem
p1322
Vvmlinux
p1323
ss(Vdescription
p1324
g1299
NVpowerpc64le
p1325
tp1326
(dp1327
Vhardware
p1328
VLittle-endian 64-bit PowerPC
p1329
ss(Vimage
p1330
g1299
NVpowerpc64le
p1331
tp1332
(dp1333
Vconfigs
p1334
(lp1335
Vkernelarch-powerpc/config-arch-64
p1336
aVkernelarch-powerpc/config-arch-64-le
p1337
ass(g214
g1299
g183
tp1338
(dp1339
g217
(lp1340
Vpowerpc64le
p1341
asg221
I01
ss(Vbase
p1342
Vriscv64
p1343
tp1344
(dp1345
Vkernel-arch
p1346
Vriscv
p1347
sVfeaturesets
p1348
(lp1349
Vnone
p1350
ass(Vbuild
p1351
g1343
tp1352
(dp1353
Vimage-file
p1354
Varch/riscv/boot/Image
p1355
sVvdso
p1356
I01
ss(Vimage
p1357
g1343
tp1358
(dp1359
Vinstall-stem
p1360
Vvmlinux
p1361
ss(Vdescription
p1362
g1343
NVriscv64
p1363
tp1364
(dp1365
Vhardware
p1366
V64-bit RISC-V platforms
p1367
sVhardware-long
p1368
V64-bit RISC-V platforms
p1369
ss(Vbase
p1370
g1343
Vnone
p1371
tp1372
(dp1373
Vflavours
p1374
(lp1375
Vriscv64
p1376
ass(Vbase
p1377
Vs390
p1378
tp1379
(dp1380
Vkernel-arch
p1381
Vs390
p1382
sVfeaturesets
p1383
(lp1384
ss(Vbase
p1385
Vs390x
p1386
tp1387
(dp1388
Vkernel-arch
p1389
Vs390
p1390
sg181
(lp1391
g183
ass(Vbuild
p1392
g1386
tp1393
(dp1394
Vimage-file
p1395
Varch/s390/boot/bzImage
p1396
sVvdso
p1397
I01
ss(Vimage
p1398
g1386
tp1399
(dp1400
Vbootloaders
p1401
(lp1402
Vs390-tools
p1403
asVinstall-stem
p1404
Vvmlinuz
p1405
ss(Vrelations
p1406
g1386
tp1407
(dp1408
Vheaders%gcc-8
p1409
Vlinux-compiler-gcc-8-s390
p1410
ss(Vdescription
p1411
g1386
NVs390x
p1412
tp1413
(dp1414
Vhardware
p1415
VIBM zSeries
p1416
ss(g214
g1386
g183
tp1417
(dp1418
g217
(lp1419
Vs390x
p1420
asg221
I01
ss(Vbase
p1421
Vsh3
p1422
tp1423
(dp1424
Vkernel-arch
p1425
Vsh
p1426
sVfeaturesets
p1427
(lp1428
ss(Vbase
p1429
Vsh4
p1430
tp1431
(dp1432
Vkernel-arch
p1433
Vsh
p1434
sg181
(lp1435
g183
ass(Vbuild
p1436
g1430
tp1437
(dp1438
Vimage-file
p1439
Varch/sh/boot/zImage
p1440
ss(Vimage
p1441
g1430
tp1442
(dp1443
Vinstall-stem
p1444
Vvmlinuz
p1445
ss(Vdescription
p1446
g1430
NVsh7751r
p1447
tp1448
(dp1449
Vhardware
p1450
Vsh7751r
p1451
sVhardware-long
p1452
VRenesas SH7751R R2D plus board
p1453
ss(Vdescription
p1454
g1430
NVsh7785lcr
p1455
tp1456
(dp1457
Vhardware
p1458
Vsh7785lcr
p1459
sVhardware-long
p1460
VRenesas SH7785 reference board
p1461
ss(Vimage
p1462
g1430
NVsh7785lcr
p1463
tp1464
(dp1465
Vrecommends
p1466
(lp1467
Vu-boot-tools
p1468
asVcheck-size
p1469
I4194304
ss(g214
g1430
g183
tp1470
(dp1471
g217
(lp1472
Vsh7751r
p1473
aVsh7785lcr
p1474
asg221
I01
ss(Vbase
p1475
Vsparc
p1476
tp1477
(dp1478
Vkernel-arch
p1479
Vsparc
p1480
sVfeaturesets
p1481
(lp1482
ss(Vbase
p1483
Vsparc64
p1484
tp1485
(dp1486
Vkernel-arch
p1487
Vsparc
p1488
sg181
(lp1489
g183
ass(Vbuild
p1490
g1484
tp1491
(dp1492
Vimage-file
p1493
Vvmlinux
p1494
ss(Vimage
p1495
g1484
tp1496
(dp1497
Vconfigs
p1498
(lp1499
sVbootloaders
p1500
(lp1501
Vgrub-ieee1275
p1502
asVsuggests
p1503
(lp1504
Vfdutils
p1505
asVinstall-stem
p1506
Vvmlinux
p1507
ss(Vdescription
p1508
g1484
NVsparc64
p1509
tp1510
(dp1511
Vhardware
p1512
Vuniprocessor 64-bit UltraSPARC
p1513
ss(Vimage
p1514
g1484
NVsparc64
p1515
tp1516
(dp1517
Vconfigs
p1518
(lp1519
Vkernelarch-sparc/config-up
p1520
ass(Vdescription
p1521
g1484
NVsparc64-smp
p1522
tp1523
(dp1524
Vhardware
p1525
Vmultiprocessor 64-bit UltraSPARC
p1526
ss(Vimage
p1527
g1484
NVsparc64-smp
p1528
tp1529
(dp1530
Vconfigs
p1531
(lp1532
Vkernelarch-sparc/config-smp
p1533
ass(g214
g1484
g183
tp1534
(dp1535
g217
(lp1536
Vsparc64
p1537
aVsparc64-smp
p1538
asg221
I01
ss(Vbase
p1539
Vx32
p1540
tp1541
(dp1542
Vkernel-arch
p1543
Vx86
p1544
sVfeaturesets
p1545
(lp1546
ss(Vabi
p1547
NVrt
p1548
tp1549
(dp1550
Vignore-changes
p1551
(lp1552
V*
p1553
ass(Vdescription
p1554
Ng1548
tp1555
(dp1556
Vpart-long-rt
p1557
VThis kernel includes the PREEMPT_RT realtime patch set.
p1558
sVpart-short-rt
p1559
VPREEMPT_RT
p1560
sVparts
p1561
(lp1562
Vrt
p1563
ass(Vversion
p1564
tp1565
(dp1566
Vsource
p1567
V5.7.6-1co1
p1568
sVupstream
p1569
V5.7
p1570
sVabiname_base
p1571
V5.7.0
p1572
sVabiname
p1573
V5.7.0-1
p1574
ss.