cdebian_linux.config
ConfigCore
p0
(tRp1
(Vabi
p2
tp3
(dp4
Vabiname
p5
V8
p6
sVignore-changes
p7
(lp8
V__cpuhp_*
p9
aV__udp_gso_segment
p10
aVbpf_analyzer
p11
aVbpf_offload_dev_create
p12
aVbpf_verifier_log_write
p13
aVcxl_*
p14
aVdax_flush
p15
aVieee80211_nullfunc_get
p16
aVinet_add_protocol
p17
aVinet_del_protocol
p18
aViommu_device_*
p19
aVmm_iommu_*
p20
aVmv_mbus_*
p21
aVperf_*
p22
aVregister_cxl_calls
p23
aVregister_key_type
p24
aVunregister_cxl_calls
p25
aV*_hw_breakpoint
p26
aVmodule:drivers/crypto/ccp/*
p27
aVmodule:drivers/hv/*
p28
aVmodule:drivers/gpu/drm/sun4i/*
p29
aVmodule:drivers/iio/**
p30
aVmodule:drivers/misc/cxl/*
p31
aVmodule:drivers/misc/lis3lv02d/*
p32
aVmodule:drivers/mtd/nand/*
p33
aVmodule:drivers/net/ethernet/**
p34
aVmodule:drivers/net/wireless/**
p35
aVmodule:drivers/nvdimm/*
p36
aVmodule:drivers/nvme/**
p37
aVmodule:drivers/power/supply/bq27xxx_battery
p38
aVmodule:drivers/scsi/cxgbi/*
p39
aVmodule:drivers/scsi/libiscs*
p40
aVmodule:drivers/scsi/qla2xxx/qla2xxx
p41
aVmodule:drivers/scsi/ufs/*
p42
aVmodule:drivers/target/**
p43
aVmodule:drivers/usb/chipidea/**
p44
aVmodule:drivers/usb/gadget/**
p45
aVmodule:drivers/usb/host/**
p46
aVmodule:drivers/usb/musb/**
p47
aVmodule:fs/nfs/**
p48
aVmodule:net/ceph/libceph
p49
aVmodule:net/l2tp/**
p50
aVmodule:net/openvswitch/**
p51
aVmodule:net/rxrpc/rxrpc
p52
aVmodule:net/sctp/**
p53
aVmodule:sound/core/seq/**
p54
aVmodule:sound/firewire/snd-firewire-lib
p55
aVmodule:sound/pci/hda/*
p56
aVbtree_*
p57
aVvisitor*
p58
aVcan_rx_register
p59
aVip6_xmit
p60
aVmodule:net/dccp/dccp
p61
aVmodule:net/rds/rds
p62
aVdevfreq_*
p63
aVdevm_devfreq_*
p64
aVupdate_devfreq
p65
aVmodule:drivers/infiniband/**
p66
aVacpi_ec_add_query_handler
p67
aVacpi_ec_remove_query_handler
p68
aVfirst_ec
p69
aVdebugfs_create_automount
p70
aVmodule:drivers/iio/imu/inv_mpu6050/*
p71
aVdrm_crtc_accurate_vblank_count
p72
aVacpi_nfit_desc_init
p73
aVacpi_nfit_init
p74
aVloop_register_transfer
p75
aVxen_xlate_*
p76
aVnf_nat_masquerade_ipv4_register_notifier
p77
aVnf_nat_masquerade_ipv6_register_notifier
p78
aVdfltcc_*
p79
aVmodule:drivers/scsi/hisi_sas/*
p80
aV__gfn_*
p81
aV__kvmhv_*
p82
aV__kvm_*
p83
aV__xive_vm_h_*
p84
aVgfn_*
p85
aVh_ipi_redirect
p86
aVhalt_poll_ns*
p87
aVkvm_*
p88
aVkvmhv_*
p89
aVkvmppc_*
p90
aVmark_page_dirty
p91
aVvcpu_*
p92
aVmodule:arch/powerpc/kvm/*
p93
aVmodule:arch/s390/kvm/*
p94
aVmodule:arch/x86/kvm/*
p95
aVuv_info
p96
aVxhci_init_driver
p97
ass(Vbase
p98
tp99
(dp100
Varches
p101
(lp102
Valpha
p103
aVamd64
p104
aVarm64
p105
aVarm64ilp32
p106
aVarmel
p107
aVarmhf
p108
aVhppa
p109
aVi386
p110
aVia64
p111
aVm68k
p112
aVmips
p113
aVmips64
p114
aVmips64el
p115
aVmips64r6
p116
aVmips64r6el
p117
aVmipsel
p118
aVmipsn32
p119
aVmipsn32el
p120
aVmipsn32r6
p121
aVmipsn32r6el
p122
aVmipsr6
p123
aVmipsr6el
p124
aVpowerpc
p125
aVppc64
p126
aVppc64el
p127
aVriscv64
p128
aVs390
p129
aVs390x
p130
aVsh3
p131
aVsh4
p132
aVsparc
p133
aVsparc64
p134
aVx32
p135
asVcompiler
p136
Vgcc-10
p137
sVfeaturesets
p138
(lp139
Vnone
p140
aVrt
p141
ass(Vbuild
p142
tp143
(dp144
Vdebug-info
p145
I01
sVsigned-code
p146
I00
ss(Vbase
p147
NVrt
p148
tp149
(dp150
Venabled
p151
I01
ss(Vdescription
p152
tp153
(dp154
Vpart-long-up
p155
VThis kernel is not suitable for SMP (multi-processor,\u000amulti-core or hyper-threaded) systems.
p156
ss(Vimage
p157
tp158
(dp159
Vinitramfs-generators
p160
(lp161
Vinitramfs-tools
p162
aVinitramfs-fallback
p163
asVbreaks
p164
(lp165
Vfwupdate (<< 12-7)
p166
aVwireless-regdb (<< 2019.06.03-1~)
p167
asVrecommends
p168
(lp169
Vapparmor
p170
ass(Vrelations
p171
tp172
(dp173
Vgcc-10
p174
Vgcc-10 <!stage1 !cross !pkg.linux.nokernel>, gcc-10-@gnu-type-package@ <!stage1 cross !pkg.linux.nokernel>
p175
sVinitramfs-fallback
p176
Vlinux-initramfs-tool
p177
sVinitramfs-tools
p178
Vinitramfs-tools (>= 0.120+deb8u2)
p179
ss(Vbase
p180
Valpha
p181
tp182
(dp183
Vdefault-flavour
p184
Valpha-smp
p185
sVkernel-arch
p186
Valpha
p187
sVfeaturesets
p188
(lp189
Vnone
p190
ass(Vbuild
p191
g181
tp192
(dp193
Vimage-file
p194
Varch/alpha/boot/vmlinux.gz
p195
ss(Vimage
p196
g181
tp197
(dp198
Vsuggests
p199
(lp200
Vaboot
p201
aVfdutils
p202
asVinstall-stem
p203
Vvmlinuz
p204
ss(Vdescription
p205
g181
NValpha-generic
p206
tp207
(dp208
Vhardware
p209
VAlpha
p210
sVhardware-long
p211
VDEC Alpha systems with extended kernel start address (Wildfire, Titan, Marvel)
p212
ss(Vdescription
p213
g181
NValpha-smp
p214
tp215
(dp216
Vhardware
p217
VAlpha SMP
p218
sVhardware-long
p219
VDEC Alpha SMP systems with extended kernel start address (Wildfire, Titan, Marvel)
p220
ss(Vbase
p221
g181
g190
tp222
(dp223
Vflavours
p224
(lp225
Valpha-generic
p226
aValpha-smp
p227
asVimplicit-flavour
p228
I01
ss(Vbase
p229
Vamd64
p230
tp231
(dp232
Vfeaturesets
p233
(lp234
Vnone
p235
aVrt
p236
asVkernel-arch
p237
Vx86
p238
ss(Vbuild
p239
g230
tp240
(dp241
Vimage-file
p242
Varch/x86/boot/bzImage
p243
sVsigned-code
p244
I01
sVvdso
p245
I01
ss(Vimage
p246
g230
tp247
(dp248
Vbootloaders
p249
(lp250
Vgrub-pc
p251
aVgrub-efi-amd64
p252
aVextlinux
p253
asVinstall-stem
p254
Vvmlinuz
p255
sVbreaks
p256
(lp257
Vxserver-xorg-input-vmmouse (<< 1:13.0.99)
p258
ass(Vrelations
p259
g230
tp260
(dp261
Vheaders%gcc-10
p262
Vlinux-compiler-gcc-10-x86
p263
ss(Vdescription
p264
g230
NVamd64
p265
tp266
(dp267
Vhardware
p268
V64-bit PCs
p269
sVhardware-long
p270
VPCs with AMD64, Intel 64 or VIA Nano processors
p271
ss(Vdescription
p272
g230
NVcloud-amd64
p273
tp274
(dp275
Vhardware
p276
Vx86-64 cloud
p277
sVhardware-long
p278
Vcloud platforms including Amazon EC2, Microsoft Azure, and Google Compute Engine
p279
ss(Vbase
p280
g230
Vnone
p281
tp282
(dp283
Vflavours
p284
(lp285
Vamd64
p286
aVcloud-amd64
p287
asVdefault-flavour
p288
Vamd64
p289
ss(Vimage
p290
g230
g281
Vcloud-amd64
p291
tp292
(dp293
Vconfigs
p294
(lp295
Vconfig.cloud
p296
aVamd64/config.cloud-amd64
p297
ass(Vbase
p298
g230
Vrt
p299
tp300
(dp301
Vflavours
p302
(lp303
Vamd64
p304
ass(Vbase
p305
Varm64
p306
tp307
(dp308
Vcross-compile-compat
p309
Varm-linux-gnueabihf-
p310
sVkernel-arch
p311
Varm64
p312
sVfeaturesets
p313
(lp314
Vnone
p315
aVrt
p316
ass(Vbuild
p317
g306
tp318
(dp319
Vimage-file
p320
Varch/arm64/boot/Image
p321
sVsigned-code
p322
I01
sVvdso
p323
I01
ss(Vimage
p324
g306
tp325
(dp326
Vinstall-stem
p327
Vvmlinuz
p328
sVbreaks
p329
(lp330
Vlibmozjs185-1.0
p331
aVlibmozjs-24-0 (<< 24.2.0-5.1~)
p332
ass(Vdescription
p333
g306
NVarm64
p334
tp335
(dp336
Vhardware
p337
V64-bit ARMv8 machines
p338
ss(Vdescription
p339
g306
NVcloud-arm64
p340
tp341
(dp342
Vhardware
p343
Varm64 cloud
p344
sVhardware-long
p345
Vcloud platforms supporting arm64 virtual machines
p346
ss(Vimage
p347
g306
NVarm64
p348
tp349
(dp350
s(Vrelations
p351
g306
tp352
(dp353
Vgcc-10
p354
Vgcc-10 <!stage1 !cross !pkg.linux.nokernel>, gcc-10-aarch64-linux-gnu <!stage1 cross !pkg.linux.nokernel>, gcc-arm-linux-gnueabihf <!stage1 !pkg.linux.nokernel>
p355
sVheaders%gcc-10
p356
Vgcc-10
p357
ss(Vbase
p358
g306
Vnone
p359
tp360
(dp361
Vflavours
p362
(lp363
Varm64
p364
aVcloud-arm64
p365
asVdefault-flavour
p366
Varm64
p367
ss(Vimage
p368
g306
g359
Vcloud-arm64
p369
tp370
(dp371
Vconfigs
p372
(lp373
Vconfig.cloud
p374
aVarm64/config.cloud-arm64
p375
ass(Vbase
p376
g306
Vrt
p377
tp378
(dp379
Vflavours
p380
(lp381
Varm64
p382
ass(Vbase
p383
Varm64ilp32
p384
tp385
(dp386
Vkernel-arch
p387
Varm64
p388
sVfeaturesets
p389
(lp390
ss(Vbase
p391
Varmel
p392
tp393
(dp394
Vkernel-arch
p395
Varm
p396
sg188
(lp397
g190
ass(Vbuild
p398
g392
tp399
(dp400
Vimage-file
p401
Varch/arm/boot/zImage
p402
sVuncompressed-image-file
p403
Varch/arm/boot/Image
p404
ss(Vimage
p405
g392
tp406
(dp407
Vinstall-stem
p408
Vvmlinuz
p409
ss(Vrelations
p410
g392
tp411
(dp412
Vheaders%gcc-10
p413
Vlinux-compiler-gcc-10-arm
p414
ss(Vdescription
p415
g392
NVmarvell
p416
tp417
(dp418
Vhardware
p419
VMarvell Kirkwood/Orion
p420
sVhardware-long
p421
VMarvell Kirkwood and Orion based systems (https://wiki.debian.org/ArmEabiPort#Supported_hardware)
p422
ss(Vdescription
p423
g392
NVrpi
p424
tp425
(dp426
Vhardware
p427
VRaspberry Pi and Pi Zero
p428
sVhardware-long
p429
VRaspberry Pi, Raspberry Pi Zero based systems
p430
ss(Vimage
p431
g392
NVmarvell
p432
tp433
(dp434
Vrecommends
p435
(lp436
Vu-boot-tools
p437
asVcheck-size
p438
I2729712
sVcheck-size-with-dtb
p439
I01
sVbreaks
p440
(lp441
Vflash-kernel (<< 3.57~)
p442
ass(g221
g392
g190
tp443
(dp444
g224
(lp445
Vmarvell
p446
aVrpi
p447
asg228
I01
ss(Vbase
p448
Varmhf
p449
tp450
(dp451
Vfeaturesets
p452
(lp453
Vnone
p454
aVrt
p455
asVkernel-arch
p456
Varm
p457
ss(Vbuild
p458
g449
tp459
(dp460
Vimage-file
p461
Varch/arm/boot/zImage
p462
sVvdso
p463
I01
ss(Vimage
p464
g449
tp465
(dp466
Vinstall-stem
p467
Vvmlinuz
p468
ss(Vrelations
p469
g449
tp470
(dp471
Vheaders%gcc-10
p472
Vlinux-compiler-gcc-10-arm
p473
ss(Vdescription
p474
g449
NVarmmp
p475
tp476
(dp477
Vhardware
p478
VARMv7 multiplatform compatible SoCs
p479
sVhardware-long
p480
VARMv7 multiplatform kernel. See\u000ahttps://wiki.debian.org/DebianKernel/ARMMP for details of supported\u000aplatforms
p481
ss(Vdescription
p482
g449
NVarmmp-lpae
p483
tp484
(dp485
Vhardware
p486
VARMv7 multiplatform compatible SoCs supporting LPAE
p487
sVhardware-long
p488
VARMv7 multiplatform kernel supporting LPAE. See\u000ahttps://wiki.debian.org/DebianKernel/ARMMP for details of supported\u000aplatforms.
p489
ss(Vbase
p490
g449
Vnone
p491
tp492
(dp493
Vflavours
p494
(lp495
Varmmp
p496
aVarmmp-lpae
p497
asVdefault-flavour
p498
Varmmp
p499
ss(Vbase
p500
g449
Vrt
p501
tp502
(dp503
Vflavours
p504
(lp505
Varmmp
p506
ass(Vbase
p507
Vhppa
p508
tp509
(dp510
Vdefault-flavour
p511
Vparisc
p512
sVkernel-arch
p513
Vparisc
p514
sg188
(lp515
g190
ass(Vbuild
p516
g508
tp517
(dp518
Vimage-file
p519
Varch/parisc/boot/bzImage
p520
sVdebug-info
p521
I00
ss(Vimage
p522
g508
tp523
(dp524
Vsuggests
p525
(lp526
Vpalo
p527
asVinstall-stem
p528
Vvmlinuz
p529
ss(Vdescription
p530
g508
NVparisc
p531
tp532
(dp533
Vhardware
p534
V32-bit PA-RISC
p535
sVhardware-long
p536
VHP PA-RISC 32-bit systems with max 4 GB RAM
p537
ss(Vbase
p538
g508
NVparisc64
p539
tp540
(dp541
Vcflags
p542
V-fno-cse-follow-jumps
p543
sVoverride-host-type
p544
Vhppa64-linux-gnu
p545
ss(Vdescription
p546
g508
NVparisc64
p547
tp548
(dp549
Vhardware
p550
V64-bit PA-RISC
p551
sVhardware-long
p552
VHP PA-RISC 64-bit systems with support for more than 4 GB RAM
p553
ss(Vrelations
p554
g508
tp555
(dp556
Vgcc-10
p557
Vgcc-10 <!stage1 !cross !pkg.linux.nokernel>, gcc-10-hppa-linux-gnu <!stage1 cross !pkg.linux.nokernel>, binutils-hppa64-linux-gnu <!stage1 !pkg.linux.nokernel>, gcc-10-hppa64-linux-gnu <!stage1 !pkg.linux.nokernel>
p558
ss(g221
g508
g190
tp559
(dp560
g224
(lp561
Vparisc
p562
aVparisc64
p563
asg228
I01
ss(Vbase
p564
Vi386
p565
tp566
(dp567
Vfeaturesets
p568
(lp569
Vnone
p570
aVrt
p571
asVkernel-arch
p572
Vx86
p573
ss(Vbuild
p574
g565
tp575
(dp576
Vimage-file
p577
Varch/x86/boot/bzImage
p578
sVsigned-code
p579
I01
sVvdso
p580
I01
ss(Vdescription
p581
g565
tp582
(dp583
Vpart-long-pae
p584
VThis kernel requires PAE (Physical Address Extension).\u000aThis feature is supported by the Intel Pentium Pro/II/III/4/4M/D, Xeon,\u000aCore and Atom; AMD Geode NX, Athlon (K7), Duron, Opteron, Sempron,\u000aTurion or Phenom; Transmeta Efficeon; VIA C7; and some other processors.
p585
ss(Vimage
p586
g565
tp587
(dp588
Vbootloaders
p589
(lp590
Vgrub-pc
p591
aVgrub-efi-ia32
p592
aVextlinux
p593
asVinstall-stem
p594
Vvmlinuz
p595
sVbreaks
p596
(lp597
Vxserver-xorg-input-vmmouse (<< 1:13.0.99)
p598
ass(Vrelations
p599
g565
tp600
(dp601
Vheaders%gcc-10
p602
Vlinux-compiler-gcc-10-x86
p603
ss(Vdescription
p604
g565
NV686
p605
tp606
(dp607
Vhardware
p608
Volder PCs
p609
sVhardware-long
p610
VPCs with one or more processors not supporting PAE
p611
ss(Vdescription
p612
g565
NV686-pae
p613
tp614
(dp615
Vhardware
p616
Vmodern PCs
p617
sVhardware-long
p618
VPCs with one or more processors supporting PAE
p619
sVparts
p620
(lp621
Vpae
p622
ass(Vbase
p623
g565
Vnone
p624
tp625
(dp626
Vflavours
p627
(lp628
V686
p629
aV686-pae
p630
asVdefault-flavour
p631
V686-pae
p632
ss(Vbase
p633
g565
Vrt
p634
tp635
(dp636
Vflavours
p637
(lp638
V686-pae
p639
ass(Vbase
p640
Via64
p641
tp642
(dp643
Vdefault-flavour
p644
Vitanium
p645
sVkernel-arch
p646
Via64
p647
sg188
(lp648
g190
ass(Vbuild
p649
g641
tp650
(dp651
Vimage-file
p652
Vvmlinux.gz
p653
ss(Vimage
p654
g641
tp655
(dp656
Vbootloaders
p657
(lp658
Vgrub-efi-ia64
p659
asVinstall-stem
p660
Vvmlinuz
p661
ss(Vdescription
p662
g641
NVitanium
p663
tp664
(dp665
Vhardware
p666
VItanium (Merced)
p667
sVhardware-long
p668
Vsystems with original Itanium (Merced) processors
p669
ss(Vdescription
p670
g641
NVmckinley
p671
tp672
(dp673
Vhardware
p674
VItanium 2+
p675
sVhardware-long
p676
Vsystems with Itanium 2 or 9300/9500/9700-series processors
p677
ss(g221
g641
g190
tp678
(dp679
g224
(lp680
Vitanium
p681
aVmckinley
p682
asg228
I01
ss(Vbase
p683
Vm68k
p684
tp685
(dp686
Vcflags
p687
V-ffreestanding
p688
sVdefault-flavour
p689
Vm68k
p690
sVkernel-arch
p691
Vm68k
p692
sg188
(lp693
g190
ass(Vbuild
p694
g684
tp695
(dp696
Vimage-file
p697
Vvmlinux
p698
ss(Vimage
p699
g684
tp700
(dp701
Vsuggests
p702
(lp703
Vvmelilo
p704
aVfdutils
p705
asVinstall-stem
p706
Vvmlinux
p707
ss(Vdescription
p708
g684
NVm68k
p709
tp710
(dp711
Vhardware
p712
VMotorola MC68020+ family
p713
ss(g221
g684
g190
tp714
(dp715
g224
(lp716
Vm68k
p717
asg228
I01
ss(Vbase
p718
Vmips
p719
tp720
(dp721
Vkernel-arch
p722
Vmips
p723
sg188
(lp724
g190
ass(Vbuild
p725
g719
tp726
(dp727
Vimage-file
p728
Vvmlinuz
p729
ss(Vimage
p730
g719
tp731
(dp732
Vinstall-stem
p733
Vvmlinuz
p734
ss(Vdescription
p735
g719
NV4kc-malta
p736
tp737
(dp738
Vhardware
p739
VMIPS Malta
p740
sVhardware-long
p741
VMIPS Malta boards
p742
ss(Vimage
p743
g719
NV4kc-malta
p744
tp745
(dp746
Vconfigs
p747
(lp748
Vkernelarch-mips/config.malta
p749
aVkernelarch-mips/config.mips32r2
p750
ass(Vdescription
p751
g719
NV5kc-malta
p752
tp753
(dp754
Vhardware
p755
VMIPS Malta (64-bit)
p756
sVhardware-long
p757
VMIPS Malta boards (64-bit)
p758
ss(Vimage
p759
g719
NV5kc-malta
p760
tp761
(dp762
Vconfigs
p763
(lp764
Vkernelarch-mips/config.malta
p765
aVkernelarch-mips/config.mips64r2
p766
ass(Vdescription
p767
g719
NVocteon
p768
tp769
(dp770
Vhardware
p771
VOcteon
p772
sVhardware-long
p773
VCavium Networks Octeon
p774
ss(Vbuild
p775
g719
NVocteon
p776
tp777
(dp778
Vimage-file
p779
Vvmlinux
p780
ss(Vimage
p781
g719
NVocteon
p782
tp783
(dp784
Vinstall-stem
p785
Vvmlinux
p786
sVconfigs
p787
(lp788
Vkernelarch-mips/config.octeon
p789
ass(g221
g719
g190
tp790
(dp791
g224
(lp792
V4kc-malta
p793
aV5kc-malta
p794
aVocteon
p795
asg228
I01
ss(Vbase
p796
Vmips64
p797
tp798
(dp799
Vkernel-arch
p800
Vmips
p801
sg188
(lp802
g190
ass(Vbuild
p803
g797
tp804
(dp805
Vimage-file
p806
Vvmlinuz
p807
ss(Vimage
p808
g797
tp809
(dp810
Vinstall-stem
p811
Vvmlinuz
p812
ss(Vdescription
p813
g797
NV5kc-malta
p814
tp815
(dp816
Vhardware
p817
VMIPS Malta
p818
sVhardware-long
p819
VMIPS Malta boards
p820
ss(Vimage
p821
g797
NV5kc-malta
p822
tp823
(dp824
Vconfigs
p825
(lp826
Vkernelarch-mips/config.malta
p827
aVkernelarch-mips/config.mips64r2
p828
ass(Vdescription
p829
g797
NVocteon
p830
tp831
(dp832
Vhardware
p833
VOcteon
p834
sVhardware-long
p835
VCavium Networks Octeon
p836
ss(Vbuild
p837
g797
NVocteon
p838
tp839
(dp840
Vimage-file
p841
Vvmlinux
p842
ss(Vimage
p843
g797
NVocteon
p844
tp845
(dp846
Vinstall-stem
p847
Vvmlinux
p848
sVconfigs
p849
(lp850
Vkernelarch-mips/config.octeon
p851
ass(g221
g797
g190
tp852
(dp853
g224
(lp854
V5kc-malta
p855
aVocteon
p856
asg228
I01
ss(Vbase
p857
Vmips64el
p858
tp859
(dp860
Vkernel-arch
p861
Vmips
p862
sg188
(lp863
g190
ass(Vbuild
p864
g858
tp865
(dp866
Vimage-file
p867
Vvmlinuz
p868
ss(Vimage
p869
g858
tp870
(dp871
Vinstall-stem
p872
Vvmlinuz
p873
ss(Vdescription
p874
g858
NV5kc-malta
p875
tp876
(dp877
Vhardware
p878
VMIPS Malta
p879
sVhardware-long
p880
VMIPS Malta boards
p881
ss(Vimage
p882
g858
NV5kc-malta
p883
tp884
(dp885
Vconfigs
p886
(lp887
Vkernelarch-mips/config.malta
p888
aVkernelarch-mips/config.mips64r2
p889
ass(Vdescription
p890
g858
NVloongson-3
p891
tp892
(dp893
Vhardware
p894
VLoongson 3A/3B
p895
sVhardware-long
p896
VLoongson 3A or 3B based systems (e.g. from Loongson or Lemote)
p897
ss(Vimage
p898
g858
NVloongson-3
p899
tp900
(dp901
Vconfigs
p902
(lp903
Vkernelarch-mips/config.loongson-3
p904
ass(Vdescription
p905
g858
NVocteon
p906
tp907
(dp908
Vhardware
p909
VOcteon
p910
sVhardware-long
p911
VCavium Networks Octeon
p912
ss(Vbuild
p913
g858
NVocteon
p914
tp915
(dp916
Vimage-file
p917
Vvmlinux
p918
ss(Vimage
p919
g858
NVocteon
p920
tp921
(dp922
Vinstall-stem
p923
Vvmlinux
p924
sVconfigs
p925
(lp926
Vkernelarch-mips/config.octeon
p927
ass(g221
g858
g190
tp928
(dp929
g224
(lp930
V5kc-malta
p931
aVloongson-3
p932
aVocteon
p933
asg228
I01
ss(Vbase
p934
Vmips64r6
p935
tp936
(dp937
Vdefault-flavour
p938
Vmips64r6
p939
sVkernel-arch
p940
Vmips
p941
sg188
(lp942
g190
ass(Vbuild
p943
g935
tp944
(dp945
Vimage-file
p946
Vvmlinux
p947
ss(Vimage
p948
g935
tp949
(dp950
Vinstall-stem
p951
Vvmlinux
p952
ss(Vdescription
p953
g935
NVmips64r6
p954
tp955
(dp956
Vhardware
p957
VMIPS R6 (64 bit, big endian)
p958
sVhardware-long
p959
VMIPS R6 (64 bit, big endian)
p960
ss(Vimage
p961
g935
NVmips64r6
p962
tp963
(dp964
Vconfigs
p965
(lp966
Vkernelarch-mips/config.boston
p967
aVkernelarch-mips/config.mips64r6
p968
ass(g221
g935
g190
tp969
(dp970
g224
(lp971
Vmips64r6
p972
asg228
I01
ss(Vbase
p973
Vmips64r6el
p974
tp975
(dp976
Vdefault-flavour
p977
Vmips64r6el
p978
sVkernel-arch
p979
Vmips
p980
sg188
(lp981
g190
ass(Vbuild
p982
g974
tp983
(dp984
Vimage-file
p985
Vvmlinux
p986
ss(Vimage
p987
g974
tp988
(dp989
Vinstall-stem
p990
Vvmlinux
p991
ss(Vdescription
p992
g974
NVmips64r6el
p993
tp994
(dp995
Vhardware
p996
VMIPS R6 (64 bit, little endian)
p997
sVhardware-long
p998
VMIPS R6 (64 bit, little endian)
p999
ss(Vimage
p1000
g974
NVmips64r6el
p1001
tp1002
(dp1003
Vconfigs
p1004
(lp1005
Vkernelarch-mips/config.boston
p1006
aVkernelarch-mips/config.mips64r6
p1007
ass(g221
g974
g190
tp1008
(dp1009
g224
(lp1010
Vmips64r6el
p1011
asg228
I01
ss(Vbase
p1012
Vmipsel
p1013
tp1014
(dp1015
Vkernel-arch
p1016
Vmips
p1017
sg188
(lp1018
g190
ass(Vbuild
p1019
g1013
tp1020
(dp1021
Vimage-file
p1022
Vvmlinuz
p1023
ss(Vimage
p1024
g1013
tp1025
(dp1026
Vinstall-stem
p1027
Vvmlinuz
p1028
ss(Vdescription
p1029
g1013
NV4kc-malta
p1030
tp1031
(dp1032
Vhardware
p1033
VMIPS Malta
p1034
sVhardware-long
p1035
VMIPS Malta boards
p1036
ss(Vimage
p1037
g1013
NV4kc-malta
p1038
tp1039
(dp1040
Vconfigs
p1041
(lp1042
Vkernelarch-mips/config.malta
p1043
aVkernelarch-mips/config.mips32r2
p1044
ass(Vdescription
p1045
g1013
NV5kc-malta
p1046
tp1047
(dp1048
Vhardware
p1049
VMIPS Malta (64-bit)
p1050
sVhardware-long
p1051
VMIPS Malta boards (64-bit)
p1052
ss(Vimage
p1053
g1013
NV5kc-malta
p1054
tp1055
(dp1056
Vconfigs
p1057
(lp1058
Vkernelarch-mips/config.malta
p1059
aVkernelarch-mips/config.mips64r2
p1060
ass(Vdescription
p1061
g1013
NVloongson-3
p1062
tp1063
(dp1064
Vhardware
p1065
VLoongson 3A/3B
p1066
sVhardware-long
p1067
VLoongson 3A or 3B based systems (e.g. from Loongson or Lemote)
p1068
ss(Vimage
p1069
g1013
NVloongson-3
p1070
tp1071
(dp1072
Vconfigs
p1073
(lp1074
Vkernelarch-mips/config.loongson-3
p1075
ass(Vdescription
p1076
g1013
NVocteon
p1077
tp1078
(dp1079
Vhardware
p1080
VOcteon
p1081
sVhardware-long
p1082
VCavium Networks Octeon
p1083
ss(Vbuild
p1084
g1013
NVocteon
p1085
tp1086
(dp1087
Vimage-file
p1088
Vvmlinux
p1089
ss(Vimage
p1090
g1013
NVocteon
p1091
tp1092
(dp1093
Vinstall-stem
p1094
Vvmlinux
p1095
sVconfigs
p1096
(lp1097
Vkernelarch-mips/config.octeon
p1098
ass(g221
g1013
g190
tp1099
(dp1100
g224
(lp1101
V4kc-malta
p1102
aV5kc-malta
p1103
aVloongson-3
p1104
aVocteon
p1105
asg228
I01
ss(Vbase
p1106
Vmipsn32
p1107
tp1108
(dp1109
Vkernel-arch
p1110
Vmips
p1111
sVfeaturesets
p1112
(lp1113
ss(Vbase
p1114
Vmipsn32el
p1115
tp1116
(dp1117
Vkernel-arch
p1118
Vmips
p1119
sVfeaturesets
p1120
(lp1121
ss(Vbase
p1122
Vmipsn32r6
p1123
tp1124
(dp1125
Vkernel-arch
p1126
Vmips
p1127
sVfeaturesets
p1128
(lp1129
ss(Vbase
p1130
Vmipsn32r6el
p1131
tp1132
(dp1133
Vkernel-arch
p1134
Vmips
p1135
sVfeaturesets
p1136
(lp1137
ss(Vbase
p1138
Vmipsr6
p1139
tp1140
(dp1141
Vdefault-flavour
p1142
Vmips32r6
p1143
sVkernel-arch
p1144
Vmips
p1145
sg188
(lp1146
g190
ass(Vbuild
p1147
g1139
tp1148
(dp1149
Vimage-file
p1150
Vvmlinux
p1151
ss(Vimage
p1152
g1139
tp1153
(dp1154
Vinstall-stem
p1155
Vvmlinux
p1156
ss(Vdescription
p1157
g1139
NVmips32r6
p1158
tp1159
(dp1160
Vhardware
p1161
VMIPS R6 (32 bit, big endian)
p1162
sVhardware-long
p1163
VMIPS R6 (32 bit, big endian)
p1164
ss(Vimage
p1165
g1139
NVmips32r6
p1166
tp1167
(dp1168
Vconfigs
p1169
(lp1170
Vkernelarch-mips/config.boston
p1171
aVkernelarch-mips/config.mips32r6
p1172
ass(Vdescription
p1173
g1139
NVmips64r6
p1174
tp1175
(dp1176
Vhardware
p1177
VMIPS R6 (64 bit, big endian)
p1178
sVhardware-long
p1179
VMIPS R6 (64 bit, big endian)
p1180
ss(Vimage
p1181
g1139
NVmips64r6
p1182
tp1183
(dp1184
Vconfigs
p1185
(lp1186
Vkernelarch-mips/config.boston
p1187
aVkernelarch-mips/config.mips64r6
p1188
ass(g221
g1139
g190
tp1189
(dp1190
g224
(lp1191
Vmips32r6
p1192
aVmips64r6
p1193
asg228
I01
ss(Vbase
p1194
Vmipsr6el
p1195
tp1196
(dp1197
Vdefault-flavour
p1198
Vmips32r6el
p1199
sVkernel-arch
p1200
Vmips
p1201
sg188
(lp1202
g190
ass(Vbuild
p1203
g1195
tp1204
(dp1205
Vimage-file
p1206
Vvmlinux
p1207
ss(Vimage
p1208
g1195
tp1209
(dp1210
Vinstall-stem
p1211
Vvmlinux
p1212
ss(Vdescription
p1213
g1195
NVmips32r6el
p1214
tp1215
(dp1216
Vhardware
p1217
VMIPS R6 (32 bit, little endian)
p1218
sVhardware-long
p1219
VMIPS R6 (32 bit, little endian)
p1220
ss(Vimage
p1221
g1195
NVmips32r6el
p1222
tp1223
(dp1224
Vconfigs
p1225
(lp1226
Vkernelarch-mips/config.boston
p1227
aVkernelarch-mips/config.mips32r6
p1228
ass(Vdescription
p1229
g1195
NVmips64r6el
p1230
tp1231
(dp1232
Vhardware
p1233
VMIPS R6 (64 bit, little endian)
p1234
sVhardware-long
p1235
VMIPS R6 (64 bit, little endian)
p1236
ss(Vimage
p1237
g1195
NVmips64r6el
p1238
tp1239
(dp1240
Vconfigs
p1241
(lp1242
Vkernelarch-mips/config.boston
p1243
aVkernelarch-mips/config.mips64r6
p1244
ass(g221
g1195
g190
tp1245
(dp1246
g224
(lp1247
Vmips32r6el
p1248
aVmips64r6el
p1249
asg228
I01
ss(Vbase
p1250
Vpowerpc
p1251
tp1252
(dp1253
Vkernel-arch
p1254
Vpowerpc
p1255
sg188
(lp1256
g190
ass(Vbuild
p1257
g1251
tp1258
(dp1259
Vimage-file
p1260
Vvmlinux
p1261
sVvdso
p1262
I01
ss(Vimage
p1263
g1251
tp1264
(dp1265
Vconfigs
p1266
(lp1267
sVbootloaders
p1268
(lp1269
Vgrub-ieee1275
p1270
asVsuggests
p1271
(lp1272
Vmkvmlinuz
p1273
asVinstall-stem
p1274
Vvmlinux
p1275
ss(Vdescription
p1276
g1251
NVpowerpc
p1277
tp1278
(dp1279
Vhardware
p1280
Vuniprocessor 32-bit PowerPC
p1281
ss(Vdescription
p1282
g1251
NVpowerpc-smp
p1283
tp1284
(dp1285
Vhardware
p1286
Vmultiprocessor 32-bit PowerPC
p1287
ss(Vimage
p1288
g1251
NVpowerpc-smp
p1289
tp1290
(dp1291
Vconfigs
p1292
(lp1293
Vpowerpc/config.powerpc
p1294
aVpowerpc/config.powerpc-smp
p1295
ass(Vdescription
p1296
g1251
NVpowerpc64
p1297
tp1298
(dp1299
Vhardware
p1300
V64-bit PowerPC
p1301
ss(Vimage
p1302
g1251
NVpowerpc64
p1303
tp1304
(dp1305
Vconfigs
p1306
(lp1307
Vkernelarch-powerpc/config-arch-64
p1308
aVkernelarch-powerpc/config-arch-64-be
p1309
ass(g221
g1251
g190
tp1310
(dp1311
g224
(lp1312
Vpowerpc
p1313
aVpowerpc-smp
p1314
aVpowerpc64
p1315
asg228
I01
ss(Vbase
p1316
Vppc64
p1317
tp1318
(dp1319
Vdefault-flavour
p1320
Vpowerpc64
p1321
sVkernel-arch
p1322
Vpowerpc
p1323
sg188
(lp1324
g190
ass(Vbuild
p1325
g1317
tp1326
(dp1327
Vimage-file
p1328
Vvmlinux
p1329
sVvdso
p1330
I01
ss(Vimage
p1331
g1317
tp1332
(dp1333
Vconfigs
p1334
(lp1335
sVbootloaders
p1336
(lp1337
Vgrub-ieee1275
p1338
asVsuggests
p1339
(lp1340
Vmkvmlinuz
p1341
asVinstall-stem
p1342
Vvmlinux
p1343
ss(Vdescription
p1344
g1317
NVpowerpc64
p1345
tp1346
(dp1347
Vhardware
p1348
V64-bit PowerPC
p1349
ss(Vimage
p1350
g1317
NVpowerpc64
p1351
tp1352
(dp1353
Vconfigs
p1354
(lp1355
Vkernelarch-powerpc/config-arch-64
p1356
aVkernelarch-powerpc/config-arch-64-be
p1357
ass(g221
g1317
g190
tp1358
(dp1359
g224
(lp1360
Vpowerpc64
p1361
asg228
I01
ss(Vbase
p1362
Vppc64el
p1363
tp1364
(dp1365
Vdefault-flavour
p1366
Vpowerpc64le
p1367
sVkernel-arch
p1368
Vpowerpc
p1369
sg188
(lp1370
g190
ass(Vbuild
p1371
g1363
tp1372
(dp1373
Vimage-file
p1374
Vvmlinux
p1375
sVvdso
p1376
I01
ss(Vimage
p1377
g1363
tp1378
(dp1379
Vconfigs
p1380
(lp1381
sVbootloaders
p1382
(lp1383
Vgrub-ieee1275
p1384
asVsuggests
p1385
(lp1386
Vmkvmlinuz
p1387
asVinstall-stem
p1388
Vvmlinux
p1389
ss(Vdescription
p1390
g1363
NVpowerpc64le
p1391
tp1392
(dp1393
Vhardware
p1394
VLittle-endian 64-bit PowerPC
p1395
ss(Vimage
p1396
g1363
NVpowerpc64le
p1397
tp1398
(dp1399
Vconfigs
p1400
(lp1401
Vkernelarch-powerpc/config-arch-64
p1402
aVkernelarch-powerpc/config-arch-64-le
p1403
ass(g221
g1363
g190
tp1404
(dp1405
g224
(lp1406
Vpowerpc64le
p1407
asg228
I01
ss(Vbase
p1408
Vriscv64
p1409
tp1410
(dp1411
Vkernel-arch
p1412
Vriscv
p1413
sVfeaturesets
p1414
(lp1415
Vnone
p1416
ass(Vbuild
p1417
g1409
tp1418
(dp1419
Vimage-file
p1420
Varch/riscv/boot/Image
p1421
sVvdso
p1422
I01
ss(Vimage
p1423
g1409
tp1424
(dp1425
Vinstall-stem
p1426
Vvmlinux
p1427
ss(Vdescription
p1428
g1409
NVriscv64
p1429
tp1430
(dp1431
Vhardware
p1432
V64-bit RISC-V platforms
p1433
sVhardware-long
p1434
V64-bit RISC-V platforms
p1435
ss(Vbase
p1436
g1409
Vnone
p1437
tp1438
(dp1439
Vflavours
p1440
(lp1441
Vriscv64
p1442
asVdefault-flavour
p1443
Vriscv64
p1444
ss(Vbase
p1445
Vs390
p1446
tp1447
(dp1448
Vkernel-arch
p1449
Vs390
p1450
sVfeaturesets
p1451
(lp1452
ss(Vbase
p1453
Vs390x
p1454
tp1455
(dp1456
Vdefault-flavour
p1457
Vs390x
p1458
sVkernel-arch
p1459
Vs390
p1460
sg188
(lp1461
g190
ass(Vbuild
p1462
g1454
tp1463
(dp1464
Vimage-file
p1465
Varch/s390/boot/bzImage
p1466
sVvdso
p1467
I01
ss(Vimage
p1468
g1454
tp1469
(dp1470
Vbootloaders
p1471
(lp1472
Vs390-tools
p1473
asVinstall-stem
p1474
Vvmlinuz
p1475
ss(Vrelations
p1476
g1454
tp1477
(dp1478
Vheaders%gcc-10
p1479
Vlinux-compiler-gcc-10-s390
p1480
ss(Vdescription
p1481
g1454
NVs390x
p1482
tp1483
(dp1484
Vhardware
p1485
VIBM zSeries
p1486
ss(g221
g1454
g190
tp1487
(dp1488
g224
(lp1489
Vs390x
p1490
asg228
I01
ss(Vbase
p1491
Vsh3
p1492
tp1493
(dp1494
Vkernel-arch
p1495
Vsh
p1496
sVfeaturesets
p1497
(lp1498
ss(Vbase
p1499
Vsh4
p1500
tp1501
(dp1502
Vkernel-arch
p1503
Vsh
p1504
sg188
(lp1505
g190
ass(Vbuild
p1506
g1500
tp1507
(dp1508
Vimage-file
p1509
Varch/sh/boot/zImage
p1510
ss(Vimage
p1511
g1500
tp1512
(dp1513
Vinstall-stem
p1514
Vvmlinuz
p1515
ss(Vdescription
p1516
g1500
NVsh7751r
p1517
tp1518
(dp1519
Vhardware
p1520
Vsh7751r
p1521
sVhardware-long
p1522
VRenesas SH7751R R2D plus board
p1523
ss(Vdescription
p1524
g1500
NVsh7785lcr
p1525
tp1526
(dp1527
Vhardware
p1528
Vsh7785lcr
p1529
sVhardware-long
p1530
VRenesas SH7785 reference board
p1531
ss(Vimage
p1532
g1500
NVsh7785lcr
p1533
tp1534
(dp1535
Vrecommends
p1536
(lp1537
Vu-boot-tools
p1538
asVcheck-size
p1539
I4194304
ss(g221
g1500
g190
tp1540
(dp1541
g224
(lp1542
Vsh7751r
p1543
aVsh7785lcr
p1544
asg228
I01
ss(Vbase
p1545
Vsparc
p1546
tp1547
(dp1548
Vkernel-arch
p1549
Vsparc
p1550
sVfeaturesets
p1551
(lp1552
ss(Vbase
p1553
Vsparc64
p1554
tp1555
(dp1556
Vdefault-flavour
p1557
Vsparc64-smp
p1558
sVkernel-arch
p1559
Vsparc
p1560
sg188
(lp1561
g190
ass(Vbuild
p1562
g1554
tp1563
(dp1564
Vimage-file
p1565
Vvmlinux
p1566
ss(Vimage
p1567
g1554
tp1568
(dp1569
Vconfigs
p1570
(lp1571
sVbootloaders
p1572
(lp1573
Vgrub-ieee1275
p1574
asVsuggests
p1575
(lp1576
Vfdutils
p1577
asVinstall-stem
p1578
Vvmlinux
p1579
ss(Vdescription
p1580
g1554
NVsparc64
p1581
tp1582
(dp1583
Vhardware
p1584
Vuniprocessor 64-bit UltraSPARC
p1585
ss(Vimage
p1586
g1554
NVsparc64
p1587
tp1588
(dp1589
Vconfigs
p1590
(lp1591
Vkernelarch-sparc/config-up
p1592
ass(Vdescription
p1593
g1554
NVsparc64-smp
p1594
tp1595
(dp1596
Vhardware
p1597
Vmultiprocessor 64-bit UltraSPARC
p1598
ss(Vimage
p1599
g1554
NVsparc64-smp
p1600
tp1601
(dp1602
Vconfigs
p1603
(lp1604
Vkernelarch-sparc/config-smp
p1605
ass(g221
g1554
g190
tp1606
(dp1607
g224
(lp1608
Vsparc64
p1609
aVsparc64-smp
p1610
asg228
I01
ss(Vbase
p1611
Vx32
p1612
tp1613
(dp1614
Vkernel-arch
p1615
Vx86
p1616
sVfeaturesets
p1617
(lp1618
ss(Vabi
p1619
NVrt
p1620
tp1621
(dp1622
Vignore-changes
p1623
(lp1624
V*
p1625
ass(Vdescription
p1626
Ng1620
tp1627
(dp1628
Vpart-long-rt
p1629
VThis kernel includes the PREEMPT_RT realtime patch set.
p1630
sVpart-short-rt
p1631
VPREEMPT_RT
p1632
sVparts
p1633
(lp1634
Vrt
p1635
ass(Vversion
p1636
tp1637
(dp1638
Vsource
p1639
V5.10.46-4
p1640
sVupstream
p1641
V5.10
p1642
sVabiname_base
p1643
V5.10.0
p1644
sVabiname
p1645
V5.10.0-8
p1646
ss.