cdebian_linux.config
ConfigCore
p0
(tRp1
(Vpackages
p2
tp3
(dp4
Vinstaller
p5
I00
ss(Vabi
p6
tp7
(dp8
Vabiname
p9
V8
p10
sVignore-changes
p11
(lp12
V__cpuhp_*
p13
aV__udp_gso_segment
p14
aVbpf_analyzer
p15
aVcxl_*
p16
aVdax_flush
p17
aVieee80211_nullfunc_get
p18
aVinet_add_protocol
p19
aVinet_del_protocol
p20
aViommu_device_*
p21
aVmm_iommu_*
p22
aVmv_mbus_*
p23
aVperf_*
p24
aVregister_cxl_calls
p25
aVregister_key_type
p26
aVunregister_cxl_calls
p27
aV*_hw_breakpoint
p28
aVmodule:drivers/crypto/ccp/*
p29
aVmodule:drivers/hv/*
p30
aVmodule:drivers/gpu/drm/sun4i/*
p31
aVmodule:drivers/iio/**
p32
aVmodule:drivers/misc/cxl/*
p33
aVmodule:drivers/misc/lis3lv02d/*
p34
aVmodule:drivers/mtd/nand/*
p35
aVmodule:drivers/net/ethernet/**
p36
aVmodule:drivers/net/wireless/**
p37
aVmodule:drivers/nvdimm/*
p38
aVmodule:drivers/nvme/**
p39
aVmodule:drivers/power/supply/bq27xxx_battery
p40
aVmodule:drivers/scsi/cxgbi/*
p41
aVmodule:drivers/scsi/libiscs*
p42
aVmodule:drivers/scsi/qla2xxx/qla2xxx
p43
aVmodule:drivers/scsi/ufs/*
p44
aVmodule:drivers/target/**
p45
aVmodule:drivers/usb/chipidea/**
p46
aVmodule:drivers/usb/gadget/**
p47
aVmodule:drivers/usb/host/**
p48
aVmodule:drivers/usb/musb/**
p49
aVmodule:fs/nfs/**
p50
aVmodule:net/ceph/libceph
p51
aVmodule:net/l2tp/**
p52
aVmodule:net/openvswitch/**
p53
aVmodule:net/rxrpc/rxrpc
p54
aVmodule:net/sctp/**
p55
aVmodule:sound/core/seq/**
p56
aVmodule:sound/firewire/snd-firewire-lib
p57
aVmodule:sound/pci/hda/*
p58
aVbtree_*
p59
aVvisitor*
p60
aVcan_rx_register
p61
aVip6_xmit
p62
aVmodule:net/dccp/dccp
p63
aVmodule:net/rds/rds
p64
aVdevfreq_*
p65
aVdevm_devfreq_*
p66
aVupdate_devfreq
p67
aVmodule:drivers/infiniband/**
p68
aVacpi_ec_add_query_handler
p69
aVacpi_ec_remove_query_handler
p70
aVfirst_ec
p71
aVdebugfs_create_automount
p72
aVmodule:drivers/iio/imu/inv_mpu6050/*
p73
aVdrm_crtc_accurate_vblank_count
p74
aVacpi_nfit_desc_init
p75
aVacpi_nfit_init
p76
aVloop_register_transfer
p77
aVxen_xlate_*
p78
aVnf_nat_masquerade_ipv4_register_notifier
p79
aVnf_nat_masquerade_ipv6_register_notifier
p80
aVdfltcc_*
p81
aVmodule:drivers/scsi/hisi_sas/*
p82
aV__gfn_*
p83
aV__kvmhv_*
p84
aV__kvm_*
p85
aV__xive_vm_h_*
p86
aVgfn_*
p87
aVh_ipi_redirect
p88
aVhalt_poll_ns*
p89
aVkvm_*
p90
aVkvmhv_*
p91
aVkvmppc_*
p92
aVmark_page_dirty
p93
aVvcpu_*
p94
aVmodule:arch/powerpc/kvm/*
p95
aVmodule:arch/s390/kvm/*
p96
aVmodule:arch/x86/kvm/*
p97
aVuv_info
p98
aVxhci_init_driver
p99
ass(Vbase
p100
tp101
(dp102
Varches
p103
(lp104
Valpha
p105
aVamd64
p106
aVarm64
p107
aVarm64ilp32
p108
aVarmel
p109
aVarmhf
p110
aVhppa
p111
aVi386
p112
aVia64
p113
aVm68k
p114
aVmips
p115
aVmips64
p116
aVmips64el
p117
aVmips64r6
p118
aVmips64r6el
p119
aVmipsel
p120
aVmipsn32
p121
aVmipsn32el
p122
aVmipsn32r6
p123
aVmipsn32r6el
p124
aVmipsr6
p125
aVmipsr6el
p126
aVpowerpc
p127
aVppc64
p128
aVppc64el
p129
aVriscv64
p130
aVs390
p131
aVs390x
p132
aVsh3
p133
aVsh4
p134
aVsparc
p135
aVsparc64
p136
aVx32
p137
asVcompiler
p138
Vgcc-8
p139
sVfeaturesets
p140
(lp141
Vnone
p142
aVrt
p143
ass(Vbuild
p144
tp145
(dp146
Vdebug-info
p147
I01
sVsigned-code
p148
I00
ss(Vbase
p149
NVrt
p150
tp151
(dp152
Venabled
p153
I01
ss(Vdescription
p154
tp155
(dp156
Vpart-long-up
p157
VThis kernel is not suitable for SMP (multi-processor,\u000amulti-core or hyper-threaded) systems.
p158
ss(Vimage
p159
tp160
(dp161
Vinitramfs-generators
p162
(lp163
Vinitramfs-tools
p164
aVinitramfs-fallback
p165
asVbreaks
p166
(lp167
Vfwupdate (<< 12-7)
p168
aVwireless-regdb (<< 2019.06.03-1~)
p169
asVrecommends
p170
(lp171
Vapparmor
p172
ass(Vrelations
p173
tp174
(dp175
Vgcc-8
p176
Vgcc-8 <!stage1 !cross !pkg.linux.nokernel>, gcc-8-@gnu-type-package@ <!stage1 cross !pkg.linux.nokernel>
p177
sVinitramfs-fallback
p178
Vlinux-initramfs-tool
p179
sVinitramfs-tools
p180
Vinitramfs-tools (>= 0.120+deb8u2)
p181
ss(Vbase
p182
Valpha
p183
tp184
(dp185
Vdefault-flavour
p186
Valpha-smp
p187
sVkernel-arch
p188
Valpha
p189
sVfeaturesets
p190
(lp191
Vnone
p192
ass(Vbuild
p193
g183
tp194
(dp195
Vimage-file
p196
Varch/alpha/boot/vmlinux.gz
p197
ss(Vimage
p198
g183
tp199
(dp200
Vsuggests
p201
(lp202
Vaboot
p203
aVfdutils
p204
asVinstall-stem
p205
Vvmlinuz
p206
ss(Vdescription
p207
g183
NValpha-generic
p208
tp209
(dp210
Vhardware
p211
VAlpha
p212
sVhardware-long
p213
VDEC Alpha systems with extended kernel start address (Wildfire, Titan, Marvel)
p214
ss(Vdescription
p215
g183
NValpha-smp
p216
tp217
(dp218
Vhardware
p219
VAlpha SMP
p220
sVhardware-long
p221
VDEC Alpha SMP systems with extended kernel start address (Wildfire, Titan, Marvel)
p222
ss(Vbase
p223
g183
g192
tp224
(dp225
Vflavours
p226
(lp227
Valpha-generic
p228
aValpha-smp
p229
asVimplicit-flavour
p230
I01
ss(Vbase
p231
Vamd64
p232
tp233
(dp234
Vfeaturesets
p235
(lp236
Vnone
p237
asVkernel-arch
p238
Vx86
p239
ss(Vbuild
p240
g232
tp241
(dp242
Vimage-file
p243
Varch/x86/boot/bzImage
p244
sVsigned-code
p245
I00
sVvdso
p246
I01
ss(Vimage
p247
g232
tp248
(dp249
Vbootloaders
p250
(lp251
Vgrub-pc
p252
aVgrub-efi-amd64
p253
aVextlinux
p254
asVinstall-stem
p255
Vvmlinuz
p256
sVbreaks
p257
(lp258
Vxserver-xorg-input-vmmouse (<< 1:13.0.99)
p259
ass(Vrelations
p260
g232
tp261
(dp262
Vheaders%gcc-8
p263
Vlinux-compiler-gcc-8-x86
p264
ss(Vdescription
p265
g232
NVamd64
p266
tp267
(dp268
Vhardware
p269
V64-bit PCs
p270
sVhardware-long
p271
VPCs with AMD64, Intel 64 or VIA Nano processors
p272
ss(Vdescription
p273
g232
NVcloud-amd64
p274
tp275
(dp276
Vhardware
p277
Vx86-64 cloud
p278
sVhardware-long
p279
Vcloud platforms including Amazon EC2, Microsoft Azure, and Google Compute Engine
p280
ss(Vbase
p281
g232
Vnone
p282
tp283
(dp284
Vflavours
p285
(lp286
Vamd64
p287
asVdefault-flavour
p288
Vamd64
p289
ss(Vimage
p290
g232
g282
Vcloud-amd64
p291
tp292
(dp293
Vconfigs
p294
(lp295
Vconfig.cloud
p296
aVamd64/config.cloud-amd64
p297
ass(Vbase
p298
Varm64
p299
tp300
(dp301
Vcross-compile-compat
p302
Varm-linux-gnueabihf-
p303
sVkernel-arch
p304
Varm64
p305
sVfeaturesets
p306
(lp307
Vnone
p308
ass(Vbuild
p309
g299
tp310
(dp311
Vimage-file
p312
Varch/arm64/boot/Image
p313
sVsigned-code
p314
I00
sVvdso
p315
I01
ss(Vimage
p316
g299
tp317
(dp318
Vinstall-stem
p319
Vvmlinuz
p320
sVbreaks
p321
(lp322
Vlibmozjs185-1.0
p323
aVlibmozjs-24-0 (<< 24.2.0-5.1~)
p324
ass(Vdescription
p325
g299
NVarm64
p326
tp327
(dp328
Vhardware
p329
V64-bit ARMv8 machines
p330
ss(Vdescription
p331
g299
NVcloud-arm64
p332
tp333
(dp334
Vhardware
p335
Varm64 cloud
p336
sVhardware-long
p337
Vcloud platforms supporting arm64 virtual machines
p338
ss(Vimage
p339
g299
NVarm64
p340
tp341
(dp342
s(Vrelations
p343
g299
tp344
(dp345
Vgcc-8
p346
Vgcc-8 <!stage1 !cross !pkg.linux.nokernel>, gcc-8-aarch64-linux-gnu <!stage1 cross !pkg.linux.nokernel>, gcc-arm-linux-gnueabihf <!stage1 !pkg.linux.nokernel>
p347
sVheaders%gcc-8
p348
Vgcc-8
p349
ss(Vbase
p350
g299
Vnone
p351
tp352
(dp353
Vflavours
p354
(lp355
Varm64
p356
asVdefault-flavour
p357
Varm64
p358
ss(Vimage
p359
g299
g351
Vcloud-arm64
p360
tp361
(dp362
Vconfigs
p363
(lp364
Vconfig.cloud
p365
aVarm64/config.cloud-arm64
p366
ass(Vbase
p367
Varm64ilp32
p368
tp369
(dp370
Vkernel-arch
p371
Varm64
p372
sVfeaturesets
p373
(lp374
ss(Vbase
p375
Varmel
p376
tp377
(dp378
Vkernel-arch
p379
Varm
p380
sg190
(lp381
g192
ass(Vbuild
p382
g376
tp383
(dp384
Vimage-file
p385
Varch/arm/boot/zImage
p386
sVuncompressed-image-file
p387
Varch/arm/boot/Image
p388
ss(Vimage
p389
g376
tp390
(dp391
Vinstall-stem
p392
Vvmlinuz
p393
ss(Vrelations
p394
g376
tp395
(dp396
Vheaders%gcc-8
p397
Vlinux-compiler-gcc-8-arm
p398
ss(Vdescription
p399
g376
NVmarvell
p400
tp401
(dp402
Vhardware
p403
VMarvell Kirkwood/Orion
p404
sVhardware-long
p405
VMarvell Kirkwood and Orion based systems (https://wiki.debian.org/ArmEabiPort#Supported_hardware)
p406
ss(Vdescription
p407
g376
NVrpi
p408
tp409
(dp410
Vhardware
p411
VRaspberry Pi and Pi Zero
p412
sVhardware-long
p413
VRaspberry Pi, Raspberry Pi Zero based systems
p414
ss(Vimage
p415
g376
NVmarvell
p416
tp417
(dp418
Vrecommends
p419
(lp420
Vu-boot-tools
p421
asVcheck-size
p422
I2729712
sVcheck-size-with-dtb
p423
I01
sVbreaks
p424
(lp425
Vflash-kernel (<< 3.57~)
p426
ass(g223
g376
g192
tp427
(dp428
g226
(lp429
Vmarvell
p430
aVrpi
p431
asg230
I01
ss(Vbase
p432
Varmhf
p433
tp434
(dp435
Vfeaturesets
p436
(lp437
Vnone
p438
asVkernel-arch
p439
Varm
p440
ss(Vbuild
p441
g433
tp442
(dp443
Vimage-file
p444
Varch/arm/boot/zImage
p445
sVvdso
p446
I01
ss(Vimage
p447
g433
tp448
(dp449
Vinstall-stem
p450
Vvmlinuz
p451
ss(Vrelations
p452
g433
tp453
(dp454
Vheaders%gcc-8
p455
Vlinux-compiler-gcc-8-arm
p456
ss(Vdescription
p457
g433
NVarmmp
p458
tp459
(dp460
Vhardware
p461
VARMv7 multiplatform compatible SoCs
p462
sVhardware-long
p463
VARMv7 multiplatform kernel. See\u000ahttps://wiki.debian.org/DebianKernel/ARMMP for details of supported\u000aplatforms
p464
ss(Vdescription
p465
g433
NVarmmp-lpae
p466
tp467
(dp468
Vhardware
p469
VARMv7 multiplatform compatible SoCs supporting LPAE
p470
sVhardware-long
p471
VARMv7 multiplatform kernel supporting LPAE. See\u000ahttps://wiki.debian.org/DebianKernel/ARMMP for details of supported\u000aplatforms.
p472
ss(Vbase
p473
g433
Vnone
p474
tp475
(dp476
Vflavours
p477
(lp478
Varmmp
p479
aVarmmp-lpae
p480
asVdefault-flavour
p481
Varmmp
p482
ss(Vbase
p483
Vhppa
p484
tp485
(dp486
Vdefault-flavour
p487
Vparisc
p488
sVkernel-arch
p489
Vparisc
p490
sg190
(lp491
g192
ass(Vbuild
p492
g484
tp493
(dp494
Vimage-file
p495
Varch/parisc/boot/bzImage
p496
sVdebug-info
p497
I00
ss(Vimage
p498
g484
tp499
(dp500
Vsuggests
p501
(lp502
Vpalo
p503
asVinstall-stem
p504
Vvmlinuz
p505
ss(Vdescription
p506
g484
NVparisc
p507
tp508
(dp509
Vhardware
p510
V32-bit PA-RISC
p511
sVhardware-long
p512
VHP PA-RISC 32-bit systems with max 4 GB RAM
p513
ss(Vbase
p514
g484
NVparisc64
p515
tp516
(dp517
Vcflags
p518
V-fno-cse-follow-jumps
p519
sVoverride-host-type
p520
Vhppa64-linux-gnu
p521
ss(Vdescription
p522
g484
NVparisc64
p523
tp524
(dp525
Vhardware
p526
V64-bit PA-RISC
p527
sVhardware-long
p528
VHP PA-RISC 64-bit systems with support for more than 4 GB RAM
p529
ss(Vrelations
p530
g484
tp531
(dp532
Vgcc-8
p533
Vgcc-8 <!stage1 !cross !pkg.linux.nokernel>, gcc-8-hppa-linux-gnu <!stage1 cross !pkg.linux.nokernel>, binutils-hppa64-linux-gnu <!stage1 !pkg.linux.nokernel>, gcc-8-hppa64-linux-gnu <!stage1 !pkg.linux.nokernel>
p534
ss(g223
g484
g192
tp535
(dp536
g226
(lp537
Vparisc
p538
aVparisc64
p539
asg230
I01
ss(Vbase
p540
Vi386
p541
tp542
(dp543
Vfeaturesets
p544
(lp545
Vnone
p546
asVkernel-arch
p547
Vx86
p548
ss(Vbuild
p549
g541
tp550
(dp551
Vimage-file
p552
Varch/x86/boot/bzImage
p553
sVsigned-code
p554
I00
sVvdso
p555
I01
ss(Vdescription
p556
g541
tp557
(dp558
Vpart-long-pae
p559
VThis kernel requires PAE (Physical Address Extension).\u000aThis feature is supported by the Intel Pentium Pro/II/III/4/4M/D, Xeon,\u000aCore and Atom; AMD Geode NX, Athlon (K7), Duron, Opteron, Sempron,\u000aTurion or Phenom; Transmeta Efficeon; VIA C7; and some other processors.
p560
ss(Vimage
p561
g541
tp562
(dp563
Vbootloaders
p564
(lp565
Vgrub-pc
p566
aVgrub-efi-ia32
p567
aVextlinux
p568
asVinstall-stem
p569
Vvmlinuz
p570
sVbreaks
p571
(lp572
Vxserver-xorg-input-vmmouse (<< 1:13.0.99)
p573
ass(Vrelations
p574
g541
tp575
(dp576
Vheaders%gcc-8
p577
Vlinux-compiler-gcc-8-x86
p578
ss(Vdescription
p579
g541
NV686
p580
tp581
(dp582
Vhardware
p583
Volder PCs
p584
sVhardware-long
p585
VPCs with one or more processors not supporting PAE
p586
ss(Vdescription
p587
g541
NV686-pae
p588
tp589
(dp590
Vhardware
p591
Vmodern PCs
p592
sVhardware-long
p593
VPCs with one or more processors supporting PAE
p594
sVparts
p595
(lp596
Vpae
p597
ass(Vbase
p598
g541
Vnone
p599
tp600
(dp601
Vflavours
p602
(lp603
V686
p604
aV686-pae
p605
asVdefault-flavour
p606
V686-pae
p607
ss(Vbase
p608
Via64
p609
tp610
(dp611
Vdefault-flavour
p612
Vitanium
p613
sVkernel-arch
p614
Via64
p615
sg190
(lp616
g192
ass(Vbuild
p617
g609
tp618
(dp619
Vimage-file
p620
Vvmlinux.gz
p621
ss(Vimage
p622
g609
tp623
(dp624
Vbootloaders
p625
(lp626
Vgrub-efi-ia64
p627
asVinstall-stem
p628
Vvmlinuz
p629
ss(Vdescription
p630
g609
NVitanium
p631
tp632
(dp633
Vhardware
p634
VItanium (Merced)
p635
sVhardware-long
p636
Vsystems with original Itanium (Merced) processors
p637
ss(Vdescription
p638
g609
NVmckinley
p639
tp640
(dp641
Vhardware
p642
VItanium 2+
p643
sVhardware-long
p644
Vsystems with Itanium 2 or 9300/9500/9700-series processors
p645
ss(g223
g609
g192
tp646
(dp647
g226
(lp648
Vitanium
p649
aVmckinley
p650
asg230
I01
ss(Vbase
p651
Vm68k
p652
tp653
(dp654
Vcflags
p655
V-ffreestanding
p656
sVdefault-flavour
p657
Vm68k
p658
sVkernel-arch
p659
Vm68k
p660
sg190
(lp661
g192
ass(Vbuild
p662
g652
tp663
(dp664
Vimage-file
p665
Vvmlinux
p666
ss(Vimage
p667
g652
tp668
(dp669
Vsuggests
p670
(lp671
Vvmelilo
p672
aVfdutils
p673
asVinstall-stem
p674
Vvmlinux
p675
ss(Vdescription
p676
g652
NVm68k
p677
tp678
(dp679
Vhardware
p680
VMotorola MC68020+ family
p681
ss(g223
g652
g192
tp682
(dp683
g226
(lp684
Vm68k
p685
asg230
I01
ss(Vbase
p686
Vmips
p687
tp688
(dp689
Vkernel-arch
p690
Vmips
p691
sg190
(lp692
g192
ass(Vbuild
p693
g687
tp694
(dp695
Vimage-file
p696
Vvmlinuz
p697
ss(Vimage
p698
g687
tp699
(dp700
Vinstall-stem
p701
Vvmlinuz
p702
ss(Vdescription
p703
g687
NV4kc-malta
p704
tp705
(dp706
Vhardware
p707
VMIPS Malta
p708
sVhardware-long
p709
VMIPS Malta boards
p710
ss(Vimage
p711
g687
NV4kc-malta
p712
tp713
(dp714
Vconfigs
p715
(lp716
Vkernelarch-mips/config.malta
p717
aVkernelarch-mips/config.mips32r2
p718
ass(Vdescription
p719
g687
NV5kc-malta
p720
tp721
(dp722
Vhardware
p723
VMIPS Malta (64-bit)
p724
sVhardware-long
p725
VMIPS Malta boards (64-bit)
p726
ss(Vimage
p727
g687
NV5kc-malta
p728
tp729
(dp730
Vconfigs
p731
(lp732
Vkernelarch-mips/config.malta
p733
aVkernelarch-mips/config.mips64r2
p734
ass(Vdescription
p735
g687
NVocteon
p736
tp737
(dp738
Vhardware
p739
VOcteon
p740
sVhardware-long
p741
VCavium Networks Octeon
p742
ss(Vbuild
p743
g687
NVocteon
p744
tp745
(dp746
Vimage-file
p747
Vvmlinux
p748
ss(Vimage
p749
g687
NVocteon
p750
tp751
(dp752
Vinstall-stem
p753
Vvmlinux
p754
sVconfigs
p755
(lp756
Vkernelarch-mips/config.octeon
p757
ass(g223
g687
g192
tp758
(dp759
g226
(lp760
V4kc-malta
p761
aV5kc-malta
p762
aVocteon
p763
asg230
I01
ss(Vbase
p764
Vmips64
p765
tp766
(dp767
Vkernel-arch
p768
Vmips
p769
sg190
(lp770
g192
ass(Vbuild
p771
g765
tp772
(dp773
Vimage-file
p774
Vvmlinuz
p775
ss(Vimage
p776
g765
tp777
(dp778
Vinstall-stem
p779
Vvmlinuz
p780
ss(Vdescription
p781
g765
NV5kc-malta
p782
tp783
(dp784
Vhardware
p785
VMIPS Malta
p786
sVhardware-long
p787
VMIPS Malta boards
p788
ss(Vimage
p789
g765
NV5kc-malta
p790
tp791
(dp792
Vconfigs
p793
(lp794
Vkernelarch-mips/config.malta
p795
aVkernelarch-mips/config.mips64r2
p796
ass(Vdescription
p797
g765
NVocteon
p798
tp799
(dp800
Vhardware
p801
VOcteon
p802
sVhardware-long
p803
VCavium Networks Octeon
p804
ss(Vbuild
p805
g765
NVocteon
p806
tp807
(dp808
Vimage-file
p809
Vvmlinux
p810
ss(Vimage
p811
g765
NVocteon
p812
tp813
(dp814
Vinstall-stem
p815
Vvmlinux
p816
sVconfigs
p817
(lp818
Vkernelarch-mips/config.octeon
p819
ass(g223
g765
g192
tp820
(dp821
g226
(lp822
V5kc-malta
p823
aVocteon
p824
asg230
I01
ss(Vbase
p825
Vmips64el
p826
tp827
(dp828
Vkernel-arch
p829
Vmips
p830
sg190
(lp831
g192
ass(Vbuild
p832
g826
tp833
(dp834
Vimage-file
p835
Vvmlinuz
p836
ss(Vimage
p837
g826
tp838
(dp839
Vinstall-stem
p840
Vvmlinuz
p841
ss(Vdescription
p842
g826
NV5kc-malta
p843
tp844
(dp845
Vhardware
p846
VMIPS Malta
p847
sVhardware-long
p848
VMIPS Malta boards
p849
ss(Vimage
p850
g826
NV5kc-malta
p851
tp852
(dp853
Vconfigs
p854
(lp855
Vkernelarch-mips/config.malta
p856
aVkernelarch-mips/config.mips64r2
p857
ass(Vdescription
p858
g826
NVloongson-3
p859
tp860
(dp861
Vhardware
p862
VLoongson 3A/3B
p863
sVhardware-long
p864
VLoongson 3A or 3B based systems (e.g. from Loongson or Lemote)
p865
ss(Vimage
p866
g826
NVloongson-3
p867
tp868
(dp869
Vconfigs
p870
(lp871
Vkernelarch-mips/config.loongson-3
p872
ass(Vdescription
p873
g826
NVocteon
p874
tp875
(dp876
Vhardware
p877
VOcteon
p878
sVhardware-long
p879
VCavium Networks Octeon
p880
ss(Vbuild
p881
g826
NVocteon
p882
tp883
(dp884
Vimage-file
p885
Vvmlinux
p886
ss(Vimage
p887
g826
NVocteon
p888
tp889
(dp890
Vinstall-stem
p891
Vvmlinux
p892
sVconfigs
p893
(lp894
Vkernelarch-mips/config.octeon
p895
ass(g223
g826
g192
tp896
(dp897
g226
(lp898
V5kc-malta
p899
aVloongson-3
p900
aVocteon
p901
asg230
I01
ss(Vbase
p902
Vmips64r6
p903
tp904
(dp905
Vdefault-flavour
p906
Vmips64r6
p907
sVkernel-arch
p908
Vmips
p909
sg190
(lp910
g192
ass(Vbuild
p911
g903
tp912
(dp913
Vimage-file
p914
Vvmlinux
p915
ss(Vimage
p916
g903
tp917
(dp918
Vinstall-stem
p919
Vvmlinux
p920
ss(Vdescription
p921
g903
NVmips64r6
p922
tp923
(dp924
Vhardware
p925
VMIPS R6 (64 bit, big endian)
p926
sVhardware-long
p927
VMIPS R6 (64 bit, big endian)
p928
ss(Vimage
p929
g903
NVmips64r6
p930
tp931
(dp932
Vconfigs
p933
(lp934
Vkernelarch-mips/config.boston
p935
aVkernelarch-mips/config.mips64r6
p936
ass(g223
g903
g192
tp937
(dp938
g226
(lp939
Vmips64r6
p940
asg230
I01
ss(Vbase
p941
Vmips64r6el
p942
tp943
(dp944
Vdefault-flavour
p945
Vmips64r6el
p946
sVkernel-arch
p947
Vmips
p948
sg190
(lp949
g192
ass(Vbuild
p950
g942
tp951
(dp952
Vimage-file
p953
Vvmlinux
p954
ss(Vimage
p955
g942
tp956
(dp957
Vinstall-stem
p958
Vvmlinux
p959
ss(Vdescription
p960
g942
NVmips64r6el
p961
tp962
(dp963
Vhardware
p964
VMIPS R6 (64 bit, little endian)
p965
sVhardware-long
p966
VMIPS R6 (64 bit, little endian)
p967
ss(Vimage
p968
g942
NVmips64r6el
p969
tp970
(dp971
Vconfigs
p972
(lp973
Vkernelarch-mips/config.boston
p974
aVkernelarch-mips/config.mips64r6
p975
ass(g223
g942
g192
tp976
(dp977
g226
(lp978
Vmips64r6el
p979
asg230
I01
ss(Vbase
p980
Vmipsel
p981
tp982
(dp983
Vkernel-arch
p984
Vmips
p985
sg190
(lp986
g192
ass(Vbuild
p987
g981
tp988
(dp989
Vimage-file
p990
Vvmlinuz
p991
ss(Vimage
p992
g981
tp993
(dp994
Vinstall-stem
p995
Vvmlinuz
p996
ss(Vdescription
p997
g981
NV4kc-malta
p998
tp999
(dp1000
Vhardware
p1001
VMIPS Malta
p1002
sVhardware-long
p1003
VMIPS Malta boards
p1004
ss(Vimage
p1005
g981
NV4kc-malta
p1006
tp1007
(dp1008
Vconfigs
p1009
(lp1010
Vkernelarch-mips/config.malta
p1011
aVkernelarch-mips/config.mips32r2
p1012
ass(Vdescription
p1013
g981
NV5kc-malta
p1014
tp1015
(dp1016
Vhardware
p1017
VMIPS Malta (64-bit)
p1018
sVhardware-long
p1019
VMIPS Malta boards (64-bit)
p1020
ss(Vimage
p1021
g981
NV5kc-malta
p1022
tp1023
(dp1024
Vconfigs
p1025
(lp1026
Vkernelarch-mips/config.malta
p1027
aVkernelarch-mips/config.mips64r2
p1028
ass(Vdescription
p1029
g981
NVloongson-3
p1030
tp1031
(dp1032
Vhardware
p1033
VLoongson 3A/3B
p1034
sVhardware-long
p1035
VLoongson 3A or 3B based systems (e.g. from Loongson or Lemote)
p1036
ss(Vimage
p1037
g981
NVloongson-3
p1038
tp1039
(dp1040
Vconfigs
p1041
(lp1042
Vkernelarch-mips/config.loongson-3
p1043
ass(Vdescription
p1044
g981
NVocteon
p1045
tp1046
(dp1047
Vhardware
p1048
VOcteon
p1049
sVhardware-long
p1050
VCavium Networks Octeon
p1051
ss(Vbuild
p1052
g981
NVocteon
p1053
tp1054
(dp1055
Vimage-file
p1056
Vvmlinux
p1057
ss(Vimage
p1058
g981
NVocteon
p1059
tp1060
(dp1061
Vinstall-stem
p1062
Vvmlinux
p1063
sVconfigs
p1064
(lp1065
Vkernelarch-mips/config.octeon
p1066
ass(g223
g981
g192
tp1067
(dp1068
g226
(lp1069
V4kc-malta
p1070
aV5kc-malta
p1071
aVloongson-3
p1072
aVocteon
p1073
asg230
I01
ss(Vbase
p1074
Vmipsn32
p1075
tp1076
(dp1077
Vkernel-arch
p1078
Vmips
p1079
sVfeaturesets
p1080
(lp1081
ss(Vbase
p1082
Vmipsn32el
p1083
tp1084
(dp1085
Vkernel-arch
p1086
Vmips
p1087
sVfeaturesets
p1088
(lp1089
ss(Vbase
p1090
Vmipsn32r6
p1091
tp1092
(dp1093
Vkernel-arch
p1094
Vmips
p1095
sVfeaturesets
p1096
(lp1097
ss(Vbase
p1098
Vmipsn32r6el
p1099
tp1100
(dp1101
Vkernel-arch
p1102
Vmips
p1103
sVfeaturesets
p1104
(lp1105
ss(Vbase
p1106
Vmipsr6
p1107
tp1108
(dp1109
Vdefault-flavour
p1110
Vmips32r6
p1111
sVkernel-arch
p1112
Vmips
p1113
sg190
(lp1114
g192
ass(Vbuild
p1115
g1107
tp1116
(dp1117
Vimage-file
p1118
Vvmlinux
p1119
ss(Vimage
p1120
g1107
tp1121
(dp1122
Vinstall-stem
p1123
Vvmlinux
p1124
ss(Vdescription
p1125
g1107
NVmips32r6
p1126
tp1127
(dp1128
Vhardware
p1129
VMIPS R6 (32 bit, big endian)
p1130
sVhardware-long
p1131
VMIPS R6 (32 bit, big endian)
p1132
ss(Vimage
p1133
g1107
NVmips32r6
p1134
tp1135
(dp1136
Vconfigs
p1137
(lp1138
Vkernelarch-mips/config.boston
p1139
aVkernelarch-mips/config.mips32r6
p1140
ass(Vdescription
p1141
g1107
NVmips64r6
p1142
tp1143
(dp1144
Vhardware
p1145
VMIPS R6 (64 bit, big endian)
p1146
sVhardware-long
p1147
VMIPS R6 (64 bit, big endian)
p1148
ss(Vimage
p1149
g1107
NVmips64r6
p1150
tp1151
(dp1152
Vconfigs
p1153
(lp1154
Vkernelarch-mips/config.boston
p1155
aVkernelarch-mips/config.mips64r6
p1156
ass(g223
g1107
g192
tp1157
(dp1158
g226
(lp1159
Vmips32r6
p1160
aVmips64r6
p1161
asg230
I01
ss(Vbase
p1162
Vmipsr6el
p1163
tp1164
(dp1165
Vdefault-flavour
p1166
Vmips32r6el
p1167
sVkernel-arch
p1168
Vmips
p1169
sg190
(lp1170
g192
ass(Vbuild
p1171
g1163
tp1172
(dp1173
Vimage-file
p1174
Vvmlinux
p1175
ss(Vimage
p1176
g1163
tp1177
(dp1178
Vinstall-stem
p1179
Vvmlinux
p1180
ss(Vdescription
p1181
g1163
NVmips32r6el
p1182
tp1183
(dp1184
Vhardware
p1185
VMIPS R6 (32 bit, little endian)
p1186
sVhardware-long
p1187
VMIPS R6 (32 bit, little endian)
p1188
ss(Vimage
p1189
g1163
NVmips32r6el
p1190
tp1191
(dp1192
Vconfigs
p1193
(lp1194
Vkernelarch-mips/config.boston
p1195
aVkernelarch-mips/config.mips32r6
p1196
ass(Vdescription
p1197
g1163
NVmips64r6el
p1198
tp1199
(dp1200
Vhardware
p1201
VMIPS R6 (64 bit, little endian)
p1202
sVhardware-long
p1203
VMIPS R6 (64 bit, little endian)
p1204
ss(Vimage
p1205
g1163
NVmips64r6el
p1206
tp1207
(dp1208
Vconfigs
p1209
(lp1210
Vkernelarch-mips/config.boston
p1211
aVkernelarch-mips/config.mips64r6
p1212
ass(g223
g1163
g192
tp1213
(dp1214
g226
(lp1215
Vmips32r6el
p1216
aVmips64r6el
p1217
asg230
I01
ss(Vbase
p1218
Vpowerpc
p1219
tp1220
(dp1221
Vkernel-arch
p1222
Vpowerpc
p1223
sg190
(lp1224
g192
ass(Vbuild
p1225
g1219
tp1226
(dp1227
Vimage-file
p1228
Vvmlinux
p1229
sVvdso
p1230
I01
ss(Vimage
p1231
g1219
tp1232
(dp1233
Vconfigs
p1234
(lp1235
sVbootloaders
p1236
(lp1237
Vgrub-ieee1275
p1238
asVsuggests
p1239
(lp1240
Vmkvmlinuz
p1241
asVinstall-stem
p1242
Vvmlinux
p1243
ss(Vdescription
p1244
g1219
NVpowerpc
p1245
tp1246
(dp1247
Vhardware
p1248
Vuniprocessor 32-bit PowerPC
p1249
ss(Vdescription
p1250
g1219
NVpowerpc-smp
p1251
tp1252
(dp1253
Vhardware
p1254
Vmultiprocessor 32-bit PowerPC
p1255
ss(Vimage
p1256
g1219
NVpowerpc-smp
p1257
tp1258
(dp1259
Vconfigs
p1260
(lp1261
Vpowerpc/config.powerpc
p1262
aVpowerpc/config.powerpc-smp
p1263
ass(Vdescription
p1264
g1219
NVpowerpc64
p1265
tp1266
(dp1267
Vhardware
p1268
V64-bit PowerPC
p1269
ss(Vimage
p1270
g1219
NVpowerpc64
p1271
tp1272
(dp1273
Vconfigs
p1274
(lp1275
Vkernelarch-powerpc/config-arch-64
p1276
aVkernelarch-powerpc/config-arch-64-be
p1277
ass(g223
g1219
g192
tp1278
(dp1279
g226
(lp1280
Vpowerpc
p1281
aVpowerpc-smp
p1282
aVpowerpc64
p1283
asg230
I01
ss(Vbase
p1284
Vppc64
p1285
tp1286
(dp1287
Vdefault-flavour
p1288
Vpowerpc64
p1289
sVkernel-arch
p1290
Vpowerpc
p1291
sg190
(lp1292
g192
ass(Vbuild
p1293
g1285
tp1294
(dp1295
Vimage-file
p1296
Vvmlinux
p1297
sVvdso
p1298
I01
ss(Vimage
p1299
g1285
tp1300
(dp1301
Vconfigs
p1302
(lp1303
sVbootloaders
p1304
(lp1305
Vgrub-ieee1275
p1306
asVsuggests
p1307
(lp1308
Vmkvmlinuz
p1309
asVinstall-stem
p1310
Vvmlinux
p1311
ss(Vdescription
p1312
g1285
NVpowerpc64
p1313
tp1314
(dp1315
Vhardware
p1316
V64-bit PowerPC
p1317
ss(Vimage
p1318
g1285
NVpowerpc64
p1319
tp1320
(dp1321
Vconfigs
p1322
(lp1323
Vkernelarch-powerpc/config-arch-64
p1324
aVkernelarch-powerpc/config-arch-64-be
p1325
ass(g223
g1285
g192
tp1326
(dp1327
g226
(lp1328
Vpowerpc64
p1329
asg230
I01
ss(Vbase
p1330
Vppc64el
p1331
tp1332
(dp1333
Vdefault-flavour
p1334
Vpowerpc64le
p1335
sVkernel-arch
p1336
Vpowerpc
p1337
sg190
(lp1338
g192
ass(Vbuild
p1339
g1331
tp1340
(dp1341
Vimage-file
p1342
Vvmlinux
p1343
sVvdso
p1344
I01
ss(Vimage
p1345
g1331
tp1346
(dp1347
Vconfigs
p1348
(lp1349
sVbootloaders
p1350
(lp1351
Vgrub-ieee1275
p1352
asVsuggests
p1353
(lp1354
Vmkvmlinuz
p1355
asVinstall-stem
p1356
Vvmlinux
p1357
ss(Vdescription
p1358
g1331
NVpowerpc64le
p1359
tp1360
(dp1361
Vhardware
p1362
VLittle-endian 64-bit PowerPC
p1363
ss(Vimage
p1364
g1331
NVpowerpc64le
p1365
tp1366
(dp1367
Vconfigs
p1368
(lp1369
Vkernelarch-powerpc/config-arch-64
p1370
aVkernelarch-powerpc/config-arch-64-le
p1371
ass(g223
g1331
g192
tp1372
(dp1373
g226
(lp1374
Vpowerpc64le
p1375
asg230
I01
ss(Vbase
p1376
Vriscv64
p1377
tp1378
(dp1379
Vkernel-arch
p1380
Vriscv
p1381
sVfeaturesets
p1382
(lp1383
Vnone
p1384
ass(Vbuild
p1385
g1377
tp1386
(dp1387
Vimage-file
p1388
Varch/riscv/boot/Image
p1389
sVvdso
p1390
I01
ss(Vimage
p1391
g1377
tp1392
(dp1393
Vinstall-stem
p1394
Vvmlinux
p1395
ss(Vdescription
p1396
g1377
NVriscv64
p1397
tp1398
(dp1399
Vhardware
p1400
V64-bit RISC-V platforms
p1401
sVhardware-long
p1402
V64-bit RISC-V platforms
p1403
ss(Vbase
p1404
g1377
Vnone
p1405
tp1406
(dp1407
Vflavours
p1408
(lp1409
Vriscv64
p1410
asVdefault-flavour
p1411
Vriscv64
p1412
ss(Vbase
p1413
Vs390
p1414
tp1415
(dp1416
Vkernel-arch
p1417
Vs390
p1418
sVfeaturesets
p1419
(lp1420
ss(Vbase
p1421
Vs390x
p1422
tp1423
(dp1424
Vdefault-flavour
p1425
Vs390x
p1426
sVkernel-arch
p1427
Vs390
p1428
sg190
(lp1429
g192
ass(Vbuild
p1430
g1422
tp1431
(dp1432
Vimage-file
p1433
Varch/s390/boot/bzImage
p1434
sVvdso
p1435
I01
ss(Vimage
p1436
g1422
tp1437
(dp1438
Vbootloaders
p1439
(lp1440
Vs390-tools
p1441
asVinstall-stem
p1442
Vvmlinuz
p1443
ss(Vrelations
p1444
g1422
tp1445
(dp1446
Vheaders%gcc-8
p1447
Vlinux-compiler-gcc-8-s390
p1448
ss(Vdescription
p1449
g1422
NVs390x
p1450
tp1451
(dp1452
Vhardware
p1453
VIBM zSeries
p1454
ss(g223
g1422
g192
tp1455
(dp1456
g226
(lp1457
Vs390x
p1458
asg230
I01
ss(Vbase
p1459
Vsh3
p1460
tp1461
(dp1462
Vkernel-arch
p1463
Vsh
p1464
sVfeaturesets
p1465
(lp1466
ss(Vbase
p1467
Vsh4
p1468
tp1469
(dp1470
Vkernel-arch
p1471
Vsh
p1472
sg190
(lp1473
g192
ass(Vbuild
p1474
g1468
tp1475
(dp1476
Vimage-file
p1477
Varch/sh/boot/zImage
p1478
ss(Vimage
p1479
g1468
tp1480
(dp1481
Vinstall-stem
p1482
Vvmlinuz
p1483
ss(Vdescription
p1484
g1468
NVsh7751r
p1485
tp1486
(dp1487
Vhardware
p1488
Vsh7751r
p1489
sVhardware-long
p1490
VRenesas SH7751R R2D plus board
p1491
ss(Vdescription
p1492
g1468
NVsh7785lcr
p1493
tp1494
(dp1495
Vhardware
p1496
Vsh7785lcr
p1497
sVhardware-long
p1498
VRenesas SH7785 reference board
p1499
ss(Vimage
p1500
g1468
NVsh7785lcr
p1501
tp1502
(dp1503
Vrecommends
p1504
(lp1505
Vu-boot-tools
p1506
asVcheck-size
p1507
I4194304
ss(g223
g1468
g192
tp1508
(dp1509
g226
(lp1510
Vsh7751r
p1511
aVsh7785lcr
p1512
asg230
I01
ss(Vbase
p1513
Vsparc
p1514
tp1515
(dp1516
Vkernel-arch
p1517
Vsparc
p1518
sVfeaturesets
p1519
(lp1520
ss(Vbase
p1521
Vsparc64
p1522
tp1523
(dp1524
Vdefault-flavour
p1525
Vsparc64-smp
p1526
sVkernel-arch
p1527
Vsparc
p1528
sg190
(lp1529
g192
ass(Vbuild
p1530
g1522
tp1531
(dp1532
Vimage-file
p1533
Vvmlinux
p1534
ss(Vimage
p1535
g1522
tp1536
(dp1537
Vconfigs
p1538
(lp1539
sVbootloaders
p1540
(lp1541
Vgrub-ieee1275
p1542
asVsuggests
p1543
(lp1544
Vfdutils
p1545
asVinstall-stem
p1546
Vvmlinux
p1547
ss(Vdescription
p1548
g1522
NVsparc64
p1549
tp1550
(dp1551
Vhardware
p1552
Vuniprocessor 64-bit UltraSPARC
p1553
ss(Vimage
p1554
g1522
NVsparc64
p1555
tp1556
(dp1557
Vconfigs
p1558
(lp1559
Vkernelarch-sparc/config-up
p1560
ass(Vdescription
p1561
g1522
NVsparc64-smp
p1562
tp1563
(dp1564
Vhardware
p1565
Vmultiprocessor 64-bit UltraSPARC
p1566
ss(Vimage
p1567
g1522
NVsparc64-smp
p1568
tp1569
(dp1570
Vconfigs
p1571
(lp1572
Vkernelarch-sparc/config-smp
p1573
ass(g223
g1522
g192
tp1574
(dp1575
g226
(lp1576
Vsparc64
p1577
aVsparc64-smp
p1578
asg230
I01
ss(Vbase
p1579
Vx32
p1580
tp1581
(dp1582
Vkernel-arch
p1583
Vx86
p1584
sVfeaturesets
p1585
(lp1586
ss(Vabi
p1587
NVrt
p1588
tp1589
(dp1590
Vignore-changes
p1591
(lp1592
V*
p1593
ass(Vdescription
p1594
Ng1588
tp1595
(dp1596
Vpart-long-rt
p1597
VThis kernel includes the PREEMPT_RT realtime patch set.
p1598
sVpart-short-rt
p1599
VPREEMPT_RT
p1600
sVparts
p1601
(lp1602
Vrt
p1603
ass(Vversion
p1604
tp1605
(dp1606
Vsource
p1607
V5.10.46-2+apertis1~2021
p1608
sVupstream
p1609
V5.10
p1610
sVabiname_base
p1611
V5.10.0
p1612
sVabiname
p1613
V5.10.0-8
p1614
ss.