cdebian_linux.config
ConfigCore
p0
(tRp1
(Vpackages
p2
tp3
(dp4
Vinstaller
p5
I00
ss(Vabi
p6
tp7
(dp8
Vabiname
p9
V8
p10
sVignore-changes
p11
(lp12
V__cpuhp_*
p13
aV__udp_gso_segment
p14
aVbpf_analyzer
p15
aVbpf_offload_dev_create
p16
aVbpf_verifier_log_write
p17
aVcxl_*
p18
aVdax_flush
p19
aVieee80211_nullfunc_get
p20
aVinet_add_protocol
p21
aVinet_del_protocol
p22
aViommu_device_*
p23
aVmm_iommu_*
p24
aVmv_mbus_*
p25
aVperf_*
p26
aVregister_cxl_calls
p27
aVregister_key_type
p28
aVunregister_cxl_calls
p29
aV*_hw_breakpoint
p30
aVmodule:drivers/crypto/ccp/*
p31
aVmodule:drivers/hv/*
p32
aVmodule:drivers/gpu/drm/sun4i/*
p33
aVmodule:drivers/iio/**
p34
aVmodule:drivers/misc/cxl/*
p35
aVmodule:drivers/misc/lis3lv02d/*
p36
aVmodule:drivers/mtd/nand/*
p37
aVmodule:drivers/net/ethernet/**
p38
aVmodule:drivers/net/wireless/**
p39
aVmodule:drivers/nvdimm/*
p40
aVmodule:drivers/nvme/**
p41
aVmodule:drivers/power/supply/bq27xxx_battery
p42
aVmodule:drivers/scsi/cxgbi/*
p43
aVmodule:drivers/scsi/libiscs*
p44
aVmodule:drivers/scsi/qla2xxx/qla2xxx
p45
aVmodule:drivers/scsi/ufs/*
p46
aVmodule:drivers/target/**
p47
aVmodule:drivers/usb/chipidea/**
p48
aVmodule:drivers/usb/gadget/**
p49
aVmodule:drivers/usb/host/**
p50
aVmodule:drivers/usb/musb/**
p51
aVmodule:fs/nfs/**
p52
aVmodule:net/ceph/libceph
p53
aVmodule:net/l2tp/**
p54
aVmodule:net/openvswitch/**
p55
aVmodule:net/rxrpc/rxrpc
p56
aVmodule:net/sctp/**
p57
aVmodule:sound/core/seq/**
p58
aVmodule:sound/firewire/snd-firewire-lib
p59
aVmodule:sound/pci/hda/*
p60
aVbtree_*
p61
aVvisitor*
p62
aVcan_rx_register
p63
aVip6_xmit
p64
aVmodule:net/dccp/dccp
p65
aVmodule:net/rds/rds
p66
aVdevfreq_*
p67
aVdevm_devfreq_*
p68
aVupdate_devfreq
p69
aVmodule:drivers/infiniband/**
p70
aVacpi_ec_add_query_handler
p71
aVacpi_ec_remove_query_handler
p72
aVfirst_ec
p73
aVdebugfs_create_automount
p74
aVmodule:drivers/iio/imu/inv_mpu6050/*
p75
aVdrm_crtc_accurate_vblank_count
p76
aVacpi_nfit_desc_init
p77
aVacpi_nfit_init
p78
aVloop_register_transfer
p79
aVxen_xlate_*
p80
aVnf_nat_masquerade_ipv4_register_notifier
p81
aVnf_nat_masquerade_ipv6_register_notifier
p82
aVdfltcc_*
p83
aVmodule:drivers/scsi/hisi_sas/*
p84
aV__gfn_*
p85
aV__kvmhv_*
p86
aV__kvm_*
p87
aV__xive_vm_h_*
p88
aVgfn_*
p89
aVh_ipi_redirect
p90
aVhalt_poll_ns*
p91
aVkvm_*
p92
aVkvmhv_*
p93
aVkvmppc_*
p94
aVmark_page_dirty
p95
aVvcpu_*
p96
aVmodule:arch/powerpc/kvm/*
p97
aVmodule:arch/s390/kvm/*
p98
aVmodule:arch/x86/kvm/*
p99
aVuv_info
p100
aVxhci_init_driver
p101
ass(Vbase
p102
tp103
(dp104
Varches
p105
(lp106
Valpha
p107
aVamd64
p108
aVarm64
p109
aVarm64ilp32
p110
aVarmel
p111
aVarmhf
p112
aVhppa
p113
aVi386
p114
aVia64
p115
aVm68k
p116
aVmips
p117
aVmips64
p118
aVmips64el
p119
aVmips64r6
p120
aVmips64r6el
p121
aVmipsel
p122
aVmipsn32
p123
aVmipsn32el
p124
aVmipsn32r6
p125
aVmipsn32r6el
p126
aVmipsr6
p127
aVmipsr6el
p128
aVpowerpc
p129
aVppc64
p130
aVppc64el
p131
aVriscv64
p132
aVs390
p133
aVs390x
p134
aVsh3
p135
aVsh4
p136
aVsparc
p137
aVsparc64
p138
aVx32
p139
asVcompiler
p140
Vgcc-8
p141
sVfeaturesets
p142
(lp143
Vnone
p144
aVrt
p145
ass(Vbuild
p146
tp147
(dp148
Vdebug-info
p149
I01
sVsigned-code
p150
I00
ss(Vbase
p151
NVrt
p152
tp153
(dp154
Venabled
p155
I01
ss(Vdescription
p156
tp157
(dp158
Vpart-long-up
p159
VThis kernel is not suitable for SMP (multi-processor,\u000amulti-core or hyper-threaded) systems.
p160
ss(Vimage
p161
tp162
(dp163
Vinitramfs-generators
p164
(lp165
Vinitramfs-tools
p166
aVinitramfs-fallback
p167
asVbreaks
p168
(lp169
Vfwupdate (<< 12-7)
p170
aVwireless-regdb (<< 2019.06.03-1~)
p171
asVrecommends
p172
(lp173
Vapparmor
p174
ass(Vrelations
p175
tp176
(dp177
Vgcc-8
p178
Vgcc-8 <!stage1 !cross !pkg.linux.nokernel>, gcc-8-@gnu-type-package@ <!stage1 cross !pkg.linux.nokernel>
p179
sVinitramfs-fallback
p180
Vlinux-initramfs-tool
p181
sVinitramfs-tools
p182
Vinitramfs-tools (>= 0.120+deb8u2)
p183
ss(Vbase
p184
Valpha
p185
tp186
(dp187
Vdefault-flavour
p188
Valpha-smp
p189
sVkernel-arch
p190
Valpha
p191
sVfeaturesets
p192
(lp193
Vnone
p194
ass(Vbuild
p195
g185
tp196
(dp197
Vimage-file
p198
Varch/alpha/boot/vmlinux.gz
p199
ss(Vimage
p200
g185
tp201
(dp202
Vsuggests
p203
(lp204
Vaboot
p205
aVfdutils
p206
asVinstall-stem
p207
Vvmlinuz
p208
ss(Vdescription
p209
g185
NValpha-generic
p210
tp211
(dp212
Vhardware
p213
VAlpha
p214
sVhardware-long
p215
VDEC Alpha systems with extended kernel start address (Wildfire, Titan, Marvel)
p216
ss(Vdescription
p217
g185
NValpha-smp
p218
tp219
(dp220
Vhardware
p221
VAlpha SMP
p222
sVhardware-long
p223
VDEC Alpha SMP systems with extended kernel start address (Wildfire, Titan, Marvel)
p224
ss(Vbase
p225
g185
g194
tp226
(dp227
Vflavours
p228
(lp229
Valpha-generic
p230
aValpha-smp
p231
asVimplicit-flavour
p232
I01
ss(Vbase
p233
Vamd64
p234
tp235
(dp236
Vfeaturesets
p237
(lp238
Vnone
p239
asVkernel-arch
p240
Vx86
p241
ss(Vbuild
p242
g234
tp243
(dp244
Vimage-file
p245
Varch/x86/boot/bzImage
p246
sVsigned-code
p247
I00
sVvdso
p248
I01
ss(Vimage
p249
g234
tp250
(dp251
Vbootloaders
p252
(lp253
Vgrub-pc
p254
aVgrub-efi-amd64
p255
aVextlinux
p256
asVinstall-stem
p257
Vvmlinuz
p258
sVbreaks
p259
(lp260
Vxserver-xorg-input-vmmouse (<< 1:13.0.99)
p261
ass(Vrelations
p262
g234
tp263
(dp264
Vheaders%gcc-8
p265
Vlinux-compiler-gcc-8-x86
p266
ss(Vdescription
p267
g234
NVamd64
p268
tp269
(dp270
Vhardware
p271
V64-bit PCs
p272
sVhardware-long
p273
VPCs with AMD64, Intel 64 or VIA Nano processors
p274
ss(Vdescription
p275
g234
NVcloud-amd64
p276
tp277
(dp278
Vhardware
p279
Vx86-64 cloud
p280
sVhardware-long
p281
Vcloud platforms including Amazon EC2, Microsoft Azure, and Google Compute Engine
p282
ss(Vbase
p283
g234
Vnone
p284
tp285
(dp286
Vflavours
p287
(lp288
Vamd64
p289
asVdefault-flavour
p290
Vamd64
p291
ss(Vimage
p292
g234
g284
Vcloud-amd64
p293
tp294
(dp295
Vconfigs
p296
(lp297
Vconfig.cloud
p298
aVamd64/config.cloud-amd64
p299
ass(Vbase
p300
Varm64
p301
tp302
(dp303
Vcross-compile-compat
p304
Varm-linux-gnueabihf-
p305
sVkernel-arch
p306
Varm64
p307
sVfeaturesets
p308
(lp309
Vnone
p310
ass(Vbuild
p311
g301
tp312
(dp313
Vimage-file
p314
Varch/arm64/boot/Image
p315
sVsigned-code
p316
I00
sVvdso
p317
I01
ss(Vimage
p318
g301
tp319
(dp320
Vinstall-stem
p321
Vvmlinuz
p322
sVbreaks
p323
(lp324
Vlibmozjs185-1.0
p325
aVlibmozjs-24-0 (<< 24.2.0-5.1~)
p326
ass(Vdescription
p327
g301
NVarm64
p328
tp329
(dp330
Vhardware
p331
V64-bit ARMv8 machines
p332
ss(Vdescription
p333
g301
NVcloud-arm64
p334
tp335
(dp336
Vhardware
p337
Varm64 cloud
p338
sVhardware-long
p339
Vcloud platforms supporting arm64 virtual machines
p340
ss(Vimage
p341
g301
NVarm64
p342
tp343
(dp344
s(Vrelations
p345
g301
tp346
(dp347
Vgcc-8
p348
Vgcc-8 <!stage1 !cross !pkg.linux.nokernel>, gcc-8-aarch64-linux-gnu <!stage1 cross !pkg.linux.nokernel>, gcc-arm-linux-gnueabihf <!stage1 !pkg.linux.nokernel>
p349
sVheaders%gcc-8
p350
Vgcc-8
p351
ss(Vbase
p352
g301
Vnone
p353
tp354
(dp355
Vflavours
p356
(lp357
Varm64
p358
asVdefault-flavour
p359
Varm64
p360
ss(Vimage
p361
g301
g353
Vcloud-arm64
p362
tp363
(dp364
Vconfigs
p365
(lp366
Vconfig.cloud
p367
aVarm64/config.cloud-arm64
p368
ass(Vbase
p369
Varm64ilp32
p370
tp371
(dp372
Vkernel-arch
p373
Varm64
p374
sVfeaturesets
p375
(lp376
ss(Vbase
p377
Varmel
p378
tp379
(dp380
Vkernel-arch
p381
Varm
p382
sg192
(lp383
g194
ass(Vbuild
p384
g378
tp385
(dp386
Vimage-file
p387
Varch/arm/boot/zImage
p388
sVuncompressed-image-file
p389
Varch/arm/boot/Image
p390
ss(Vimage
p391
g378
tp392
(dp393
Vinstall-stem
p394
Vvmlinuz
p395
ss(Vrelations
p396
g378
tp397
(dp398
Vheaders%gcc-8
p399
Vlinux-compiler-gcc-8-arm
p400
ss(Vdescription
p401
g378
NVmarvell
p402
tp403
(dp404
Vhardware
p405
VMarvell Kirkwood/Orion
p406
sVhardware-long
p407
VMarvell Kirkwood and Orion based systems (https://wiki.debian.org/ArmEabiPort#Supported_hardware)
p408
ss(Vdescription
p409
g378
NVrpi
p410
tp411
(dp412
Vhardware
p413
VRaspberry Pi and Pi Zero
p414
sVhardware-long
p415
VRaspberry Pi, Raspberry Pi Zero based systems
p416
ss(Vimage
p417
g378
NVmarvell
p418
tp419
(dp420
Vrecommends
p421
(lp422
Vu-boot-tools
p423
asVcheck-size
p424
I2729712
sVcheck-size-with-dtb
p425
I01
sVbreaks
p426
(lp427
Vflash-kernel (<< 3.57~)
p428
ass(g225
g378
g194
tp429
(dp430
g228
(lp431
Vmarvell
p432
aVrpi
p433
asg232
I01
ss(Vbase
p434
Varmhf
p435
tp436
(dp437
Vfeaturesets
p438
(lp439
Vnone
p440
asVkernel-arch
p441
Varm
p442
ss(Vbuild
p443
g435
tp444
(dp445
Vimage-file
p446
Varch/arm/boot/zImage
p447
sVvdso
p448
I01
ss(Vimage
p449
g435
tp450
(dp451
Vinstall-stem
p452
Vvmlinuz
p453
ss(Vrelations
p454
g435
tp455
(dp456
Vheaders%gcc-8
p457
Vlinux-compiler-gcc-8-arm
p458
ss(Vdescription
p459
g435
NVarmmp
p460
tp461
(dp462
Vhardware
p463
VARMv7 multiplatform compatible SoCs
p464
sVhardware-long
p465
VARMv7 multiplatform kernel. See\u000ahttps://wiki.debian.org/DebianKernel/ARMMP for details of supported\u000aplatforms
p466
ss(Vdescription
p467
g435
NVarmmp-lpae
p468
tp469
(dp470
Vhardware
p471
VARMv7 multiplatform compatible SoCs supporting LPAE
p472
sVhardware-long
p473
VARMv7 multiplatform kernel supporting LPAE. See\u000ahttps://wiki.debian.org/DebianKernel/ARMMP for details of supported\u000aplatforms.
p474
ss(Vbase
p475
g435
Vnone
p476
tp477
(dp478
Vflavours
p479
(lp480
Varmmp
p481
aVarmmp-lpae
p482
asVdefault-flavour
p483
Varmmp
p484
ss(Vbase
p485
Vhppa
p486
tp487
(dp488
Vdefault-flavour
p489
Vparisc
p490
sVkernel-arch
p491
Vparisc
p492
sg192
(lp493
g194
ass(Vbuild
p494
g486
tp495
(dp496
Vimage-file
p497
Varch/parisc/boot/bzImage
p498
sVdebug-info
p499
I00
ss(Vimage
p500
g486
tp501
(dp502
Vsuggests
p503
(lp504
Vpalo
p505
asVinstall-stem
p506
Vvmlinuz
p507
ss(Vdescription
p508
g486
NVparisc
p509
tp510
(dp511
Vhardware
p512
V32-bit PA-RISC
p513
sVhardware-long
p514
VHP PA-RISC 32-bit systems with max 4 GB RAM
p515
ss(Vbase
p516
g486
NVparisc64
p517
tp518
(dp519
Vcflags
p520
V-fno-cse-follow-jumps
p521
sVoverride-host-type
p522
Vhppa64-linux-gnu
p523
ss(Vdescription
p524
g486
NVparisc64
p525
tp526
(dp527
Vhardware
p528
V64-bit PA-RISC
p529
sVhardware-long
p530
VHP PA-RISC 64-bit systems with support for more than 4 GB RAM
p531
ss(Vrelations
p532
g486
tp533
(dp534
Vgcc-8
p535
Vgcc-8 <!stage1 !cross !pkg.linux.nokernel>, gcc-8-hppa-linux-gnu <!stage1 cross !pkg.linux.nokernel>, binutils-hppa64-linux-gnu <!stage1 !pkg.linux.nokernel>, gcc-8-hppa64-linux-gnu <!stage1 !pkg.linux.nokernel>
p536
ss(g225
g486
g194
tp537
(dp538
g228
(lp539
Vparisc
p540
aVparisc64
p541
asg232
I01
ss(Vbase
p542
Vi386
p543
tp544
(dp545
Vfeaturesets
p546
(lp547
Vnone
p548
asVkernel-arch
p549
Vx86
p550
ss(Vbuild
p551
g543
tp552
(dp553
Vimage-file
p554
Varch/x86/boot/bzImage
p555
sVsigned-code
p556
I00
sVvdso
p557
I01
ss(Vdescription
p558
g543
tp559
(dp560
Vpart-long-pae
p561
VThis kernel requires PAE (Physical Address Extension).\u000aThis feature is supported by the Intel Pentium Pro/II/III/4/4M/D, Xeon,\u000aCore and Atom; AMD Geode NX, Athlon (K7), Duron, Opteron, Sempron,\u000aTurion or Phenom; Transmeta Efficeon; VIA C7; and some other processors.
p562
ss(Vimage
p563
g543
tp564
(dp565
Vbootloaders
p566
(lp567
Vgrub-pc
p568
aVgrub-efi-ia32
p569
aVextlinux
p570
asVinstall-stem
p571
Vvmlinuz
p572
sVbreaks
p573
(lp574
Vxserver-xorg-input-vmmouse (<< 1:13.0.99)
p575
ass(Vrelations
p576
g543
tp577
(dp578
Vheaders%gcc-8
p579
Vlinux-compiler-gcc-8-x86
p580
ss(Vdescription
p581
g543
NV686
p582
tp583
(dp584
Vhardware
p585
Volder PCs
p586
sVhardware-long
p587
VPCs with one or more processors not supporting PAE
p588
ss(Vdescription
p589
g543
NV686-pae
p590
tp591
(dp592
Vhardware
p593
Vmodern PCs
p594
sVhardware-long
p595
VPCs with one or more processors supporting PAE
p596
sVparts
p597
(lp598
Vpae
p599
ass(Vbase
p600
g543
Vnone
p601
tp602
(dp603
Vflavours
p604
(lp605
V686
p606
aV686-pae
p607
asVdefault-flavour
p608
V686-pae
p609
ss(Vbase
p610
Via64
p611
tp612
(dp613
Vdefault-flavour
p614
Vitanium
p615
sVkernel-arch
p616
Via64
p617
sg192
(lp618
g194
ass(Vbuild
p619
g611
tp620
(dp621
Vimage-file
p622
Vvmlinux.gz
p623
ss(Vimage
p624
g611
tp625
(dp626
Vbootloaders
p627
(lp628
Vgrub-efi-ia64
p629
asVinstall-stem
p630
Vvmlinuz
p631
ss(Vdescription
p632
g611
NVitanium
p633
tp634
(dp635
Vhardware
p636
VItanium (Merced)
p637
sVhardware-long
p638
Vsystems with original Itanium (Merced) processors
p639
ss(Vdescription
p640
g611
NVmckinley
p641
tp642
(dp643
Vhardware
p644
VItanium 2+
p645
sVhardware-long
p646
Vsystems with Itanium 2 or 9300/9500/9700-series processors
p647
ss(g225
g611
g194
tp648
(dp649
g228
(lp650
Vitanium
p651
aVmckinley
p652
asg232
I01
ss(Vbase
p653
Vm68k
p654
tp655
(dp656
Vcflags
p657
V-ffreestanding
p658
sVdefault-flavour
p659
Vm68k
p660
sVkernel-arch
p661
Vm68k
p662
sg192
(lp663
g194
ass(Vbuild
p664
g654
tp665
(dp666
Vimage-file
p667
Vvmlinux
p668
ss(Vimage
p669
g654
tp670
(dp671
Vsuggests
p672
(lp673
Vvmelilo
p674
aVfdutils
p675
asVinstall-stem
p676
Vvmlinux
p677
ss(Vdescription
p678
g654
NVm68k
p679
tp680
(dp681
Vhardware
p682
VMotorola MC68020+ family
p683
ss(g225
g654
g194
tp684
(dp685
g228
(lp686
Vm68k
p687
asg232
I01
ss(Vbase
p688
Vmips
p689
tp690
(dp691
Vkernel-arch
p692
Vmips
p693
sg192
(lp694
g194
ass(Vbuild
p695
g689
tp696
(dp697
Vimage-file
p698
Vvmlinuz
p699
ss(Vimage
p700
g689
tp701
(dp702
Vinstall-stem
p703
Vvmlinuz
p704
ss(Vdescription
p705
g689
NV4kc-malta
p706
tp707
(dp708
Vhardware
p709
VMIPS Malta
p710
sVhardware-long
p711
VMIPS Malta boards
p712
ss(Vimage
p713
g689
NV4kc-malta
p714
tp715
(dp716
Vconfigs
p717
(lp718
Vkernelarch-mips/config.malta
p719
aVkernelarch-mips/config.mips32r2
p720
ass(Vdescription
p721
g689
NV5kc-malta
p722
tp723
(dp724
Vhardware
p725
VMIPS Malta (64-bit)
p726
sVhardware-long
p727
VMIPS Malta boards (64-bit)
p728
ss(Vimage
p729
g689
NV5kc-malta
p730
tp731
(dp732
Vconfigs
p733
(lp734
Vkernelarch-mips/config.malta
p735
aVkernelarch-mips/config.mips64r2
p736
ass(Vdescription
p737
g689
NVocteon
p738
tp739
(dp740
Vhardware
p741
VOcteon
p742
sVhardware-long
p743
VCavium Networks Octeon
p744
ss(Vbuild
p745
g689
NVocteon
p746
tp747
(dp748
Vimage-file
p749
Vvmlinux
p750
ss(Vimage
p751
g689
NVocteon
p752
tp753
(dp754
Vinstall-stem
p755
Vvmlinux
p756
sVconfigs
p757
(lp758
Vkernelarch-mips/config.octeon
p759
ass(g225
g689
g194
tp760
(dp761
g228
(lp762
V4kc-malta
p763
aV5kc-malta
p764
aVocteon
p765
asg232
I01
ss(Vbase
p766
Vmips64
p767
tp768
(dp769
Vkernel-arch
p770
Vmips
p771
sg192
(lp772
g194
ass(Vbuild
p773
g767
tp774
(dp775
Vimage-file
p776
Vvmlinuz
p777
ss(Vimage
p778
g767
tp779
(dp780
Vinstall-stem
p781
Vvmlinuz
p782
ss(Vdescription
p783
g767
NV5kc-malta
p784
tp785
(dp786
Vhardware
p787
VMIPS Malta
p788
sVhardware-long
p789
VMIPS Malta boards
p790
ss(Vimage
p791
g767
NV5kc-malta
p792
tp793
(dp794
Vconfigs
p795
(lp796
Vkernelarch-mips/config.malta
p797
aVkernelarch-mips/config.mips64r2
p798
ass(Vdescription
p799
g767
NVocteon
p800
tp801
(dp802
Vhardware
p803
VOcteon
p804
sVhardware-long
p805
VCavium Networks Octeon
p806
ss(Vbuild
p807
g767
NVocteon
p808
tp809
(dp810
Vimage-file
p811
Vvmlinux
p812
ss(Vimage
p813
g767
NVocteon
p814
tp815
(dp816
Vinstall-stem
p817
Vvmlinux
p818
sVconfigs
p819
(lp820
Vkernelarch-mips/config.octeon
p821
ass(g225
g767
g194
tp822
(dp823
g228
(lp824
V5kc-malta
p825
aVocteon
p826
asg232
I01
ss(Vbase
p827
Vmips64el
p828
tp829
(dp830
Vkernel-arch
p831
Vmips
p832
sg192
(lp833
g194
ass(Vbuild
p834
g828
tp835
(dp836
Vimage-file
p837
Vvmlinuz
p838
ss(Vimage
p839
g828
tp840
(dp841
Vinstall-stem
p842
Vvmlinuz
p843
ss(Vdescription
p844
g828
NV5kc-malta
p845
tp846
(dp847
Vhardware
p848
VMIPS Malta
p849
sVhardware-long
p850
VMIPS Malta boards
p851
ss(Vimage
p852
g828
NV5kc-malta
p853
tp854
(dp855
Vconfigs
p856
(lp857
Vkernelarch-mips/config.malta
p858
aVkernelarch-mips/config.mips64r2
p859
ass(Vdescription
p860
g828
NVloongson-3
p861
tp862
(dp863
Vhardware
p864
VLoongson 3A/3B
p865
sVhardware-long
p866
VLoongson 3A or 3B based systems (e.g. from Loongson or Lemote)
p867
ss(Vimage
p868
g828
NVloongson-3
p869
tp870
(dp871
Vconfigs
p872
(lp873
Vkernelarch-mips/config.loongson-3
p874
ass(Vdescription
p875
g828
NVocteon
p876
tp877
(dp878
Vhardware
p879
VOcteon
p880
sVhardware-long
p881
VCavium Networks Octeon
p882
ss(Vbuild
p883
g828
NVocteon
p884
tp885
(dp886
Vimage-file
p887
Vvmlinux
p888
ss(Vimage
p889
g828
NVocteon
p890
tp891
(dp892
Vinstall-stem
p893
Vvmlinux
p894
sVconfigs
p895
(lp896
Vkernelarch-mips/config.octeon
p897
ass(g225
g828
g194
tp898
(dp899
g228
(lp900
V5kc-malta
p901
aVloongson-3
p902
aVocteon
p903
asg232
I01
ss(Vbase
p904
Vmips64r6
p905
tp906
(dp907
Vdefault-flavour
p908
Vmips64r6
p909
sVkernel-arch
p910
Vmips
p911
sg192
(lp912
g194
ass(Vbuild
p913
g905
tp914
(dp915
Vimage-file
p916
Vvmlinux
p917
ss(Vimage
p918
g905
tp919
(dp920
Vinstall-stem
p921
Vvmlinux
p922
ss(Vdescription
p923
g905
NVmips64r6
p924
tp925
(dp926
Vhardware
p927
VMIPS R6 (64 bit, big endian)
p928
sVhardware-long
p929
VMIPS R6 (64 bit, big endian)
p930
ss(Vimage
p931
g905
NVmips64r6
p932
tp933
(dp934
Vconfigs
p935
(lp936
Vkernelarch-mips/config.boston
p937
aVkernelarch-mips/config.mips64r6
p938
ass(g225
g905
g194
tp939
(dp940
g228
(lp941
Vmips64r6
p942
asg232
I01
ss(Vbase
p943
Vmips64r6el
p944
tp945
(dp946
Vdefault-flavour
p947
Vmips64r6el
p948
sVkernel-arch
p949
Vmips
p950
sg192
(lp951
g194
ass(Vbuild
p952
g944
tp953
(dp954
Vimage-file
p955
Vvmlinux
p956
ss(Vimage
p957
g944
tp958
(dp959
Vinstall-stem
p960
Vvmlinux
p961
ss(Vdescription
p962
g944
NVmips64r6el
p963
tp964
(dp965
Vhardware
p966
VMIPS R6 (64 bit, little endian)
p967
sVhardware-long
p968
VMIPS R6 (64 bit, little endian)
p969
ss(Vimage
p970
g944
NVmips64r6el
p971
tp972
(dp973
Vconfigs
p974
(lp975
Vkernelarch-mips/config.boston
p976
aVkernelarch-mips/config.mips64r6
p977
ass(g225
g944
g194
tp978
(dp979
g228
(lp980
Vmips64r6el
p981
asg232
I01
ss(Vbase
p982
Vmipsel
p983
tp984
(dp985
Vkernel-arch
p986
Vmips
p987
sg192
(lp988
g194
ass(Vbuild
p989
g983
tp990
(dp991
Vimage-file
p992
Vvmlinuz
p993
ss(Vimage
p994
g983
tp995
(dp996
Vinstall-stem
p997
Vvmlinuz
p998
ss(Vdescription
p999
g983
NV4kc-malta
p1000
tp1001
(dp1002
Vhardware
p1003
VMIPS Malta
p1004
sVhardware-long
p1005
VMIPS Malta boards
p1006
ss(Vimage
p1007
g983
NV4kc-malta
p1008
tp1009
(dp1010
Vconfigs
p1011
(lp1012
Vkernelarch-mips/config.malta
p1013
aVkernelarch-mips/config.mips32r2
p1014
ass(Vdescription
p1015
g983
NV5kc-malta
p1016
tp1017
(dp1018
Vhardware
p1019
VMIPS Malta (64-bit)
p1020
sVhardware-long
p1021
VMIPS Malta boards (64-bit)
p1022
ss(Vimage
p1023
g983
NV5kc-malta
p1024
tp1025
(dp1026
Vconfigs
p1027
(lp1028
Vkernelarch-mips/config.malta
p1029
aVkernelarch-mips/config.mips64r2
p1030
ass(Vdescription
p1031
g983
NVloongson-3
p1032
tp1033
(dp1034
Vhardware
p1035
VLoongson 3A/3B
p1036
sVhardware-long
p1037
VLoongson 3A or 3B based systems (e.g. from Loongson or Lemote)
p1038
ss(Vimage
p1039
g983
NVloongson-3
p1040
tp1041
(dp1042
Vconfigs
p1043
(lp1044
Vkernelarch-mips/config.loongson-3
p1045
ass(Vdescription
p1046
g983
NVocteon
p1047
tp1048
(dp1049
Vhardware
p1050
VOcteon
p1051
sVhardware-long
p1052
VCavium Networks Octeon
p1053
ss(Vbuild
p1054
g983
NVocteon
p1055
tp1056
(dp1057
Vimage-file
p1058
Vvmlinux
p1059
ss(Vimage
p1060
g983
NVocteon
p1061
tp1062
(dp1063
Vinstall-stem
p1064
Vvmlinux
p1065
sVconfigs
p1066
(lp1067
Vkernelarch-mips/config.octeon
p1068
ass(g225
g983
g194
tp1069
(dp1070
g228
(lp1071
V4kc-malta
p1072
aV5kc-malta
p1073
aVloongson-3
p1074
aVocteon
p1075
asg232
I01
ss(Vbase
p1076
Vmipsn32
p1077
tp1078
(dp1079
Vkernel-arch
p1080
Vmips
p1081
sVfeaturesets
p1082
(lp1083
ss(Vbase
p1084
Vmipsn32el
p1085
tp1086
(dp1087
Vkernel-arch
p1088
Vmips
p1089
sVfeaturesets
p1090
(lp1091
ss(Vbase
p1092
Vmipsn32r6
p1093
tp1094
(dp1095
Vkernel-arch
p1096
Vmips
p1097
sVfeaturesets
p1098
(lp1099
ss(Vbase
p1100
Vmipsn32r6el
p1101
tp1102
(dp1103
Vkernel-arch
p1104
Vmips
p1105
sVfeaturesets
p1106
(lp1107
ss(Vbase
p1108
Vmipsr6
p1109
tp1110
(dp1111
Vdefault-flavour
p1112
Vmips32r6
p1113
sVkernel-arch
p1114
Vmips
p1115
sg192
(lp1116
g194
ass(Vbuild
p1117
g1109
tp1118
(dp1119
Vimage-file
p1120
Vvmlinux
p1121
ss(Vimage
p1122
g1109
tp1123
(dp1124
Vinstall-stem
p1125
Vvmlinux
p1126
ss(Vdescription
p1127
g1109
NVmips32r6
p1128
tp1129
(dp1130
Vhardware
p1131
VMIPS R6 (32 bit, big endian)
p1132
sVhardware-long
p1133
VMIPS R6 (32 bit, big endian)
p1134
ss(Vimage
p1135
g1109
NVmips32r6
p1136
tp1137
(dp1138
Vconfigs
p1139
(lp1140
Vkernelarch-mips/config.boston
p1141
aVkernelarch-mips/config.mips32r6
p1142
ass(Vdescription
p1143
g1109
NVmips64r6
p1144
tp1145
(dp1146
Vhardware
p1147
VMIPS R6 (64 bit, big endian)
p1148
sVhardware-long
p1149
VMIPS R6 (64 bit, big endian)
p1150
ss(Vimage
p1151
g1109
NVmips64r6
p1152
tp1153
(dp1154
Vconfigs
p1155
(lp1156
Vkernelarch-mips/config.boston
p1157
aVkernelarch-mips/config.mips64r6
p1158
ass(g225
g1109
g194
tp1159
(dp1160
g228
(lp1161
Vmips32r6
p1162
aVmips64r6
p1163
asg232
I01
ss(Vbase
p1164
Vmipsr6el
p1165
tp1166
(dp1167
Vdefault-flavour
p1168
Vmips32r6el
p1169
sVkernel-arch
p1170
Vmips
p1171
sg192
(lp1172
g194
ass(Vbuild
p1173
g1165
tp1174
(dp1175
Vimage-file
p1176
Vvmlinux
p1177
ss(Vimage
p1178
g1165
tp1179
(dp1180
Vinstall-stem
p1181
Vvmlinux
p1182
ss(Vdescription
p1183
g1165
NVmips32r6el
p1184
tp1185
(dp1186
Vhardware
p1187
VMIPS R6 (32 bit, little endian)
p1188
sVhardware-long
p1189
VMIPS R6 (32 bit, little endian)
p1190
ss(Vimage
p1191
g1165
NVmips32r6el
p1192
tp1193
(dp1194
Vconfigs
p1195
(lp1196
Vkernelarch-mips/config.boston
p1197
aVkernelarch-mips/config.mips32r6
p1198
ass(Vdescription
p1199
g1165
NVmips64r6el
p1200
tp1201
(dp1202
Vhardware
p1203
VMIPS R6 (64 bit, little endian)
p1204
sVhardware-long
p1205
VMIPS R6 (64 bit, little endian)
p1206
ss(Vimage
p1207
g1165
NVmips64r6el
p1208
tp1209
(dp1210
Vconfigs
p1211
(lp1212
Vkernelarch-mips/config.boston
p1213
aVkernelarch-mips/config.mips64r6
p1214
ass(g225
g1165
g194
tp1215
(dp1216
g228
(lp1217
Vmips32r6el
p1218
aVmips64r6el
p1219
asg232
I01
ss(Vbase
p1220
Vpowerpc
p1221
tp1222
(dp1223
Vkernel-arch
p1224
Vpowerpc
p1225
sg192
(lp1226
g194
ass(Vbuild
p1227
g1221
tp1228
(dp1229
Vimage-file
p1230
Vvmlinux
p1231
sVvdso
p1232
I01
ss(Vimage
p1233
g1221
tp1234
(dp1235
Vconfigs
p1236
(lp1237
sVbootloaders
p1238
(lp1239
Vgrub-ieee1275
p1240
asVsuggests
p1241
(lp1242
Vmkvmlinuz
p1243
asVinstall-stem
p1244
Vvmlinux
p1245
ss(Vdescription
p1246
g1221
NVpowerpc
p1247
tp1248
(dp1249
Vhardware
p1250
Vuniprocessor 32-bit PowerPC
p1251
ss(Vdescription
p1252
g1221
NVpowerpc-smp
p1253
tp1254
(dp1255
Vhardware
p1256
Vmultiprocessor 32-bit PowerPC
p1257
ss(Vimage
p1258
g1221
NVpowerpc-smp
p1259
tp1260
(dp1261
Vconfigs
p1262
(lp1263
Vpowerpc/config.powerpc
p1264
aVpowerpc/config.powerpc-smp
p1265
ass(Vdescription
p1266
g1221
NVpowerpc64
p1267
tp1268
(dp1269
Vhardware
p1270
V64-bit PowerPC
p1271
ss(Vimage
p1272
g1221
NVpowerpc64
p1273
tp1274
(dp1275
Vconfigs
p1276
(lp1277
Vkernelarch-powerpc/config-arch-64
p1278
aVkernelarch-powerpc/config-arch-64-be
p1279
ass(g225
g1221
g194
tp1280
(dp1281
g228
(lp1282
Vpowerpc
p1283
aVpowerpc-smp
p1284
aVpowerpc64
p1285
asg232
I01
ss(Vbase
p1286
Vppc64
p1287
tp1288
(dp1289
Vdefault-flavour
p1290
Vpowerpc64
p1291
sVkernel-arch
p1292
Vpowerpc
p1293
sg192
(lp1294
g194
ass(Vbuild
p1295
g1287
tp1296
(dp1297
Vimage-file
p1298
Vvmlinux
p1299
sVvdso
p1300
I01
ss(Vimage
p1301
g1287
tp1302
(dp1303
Vconfigs
p1304
(lp1305
sVbootloaders
p1306
(lp1307
Vgrub-ieee1275
p1308
asVsuggests
p1309
(lp1310
Vmkvmlinuz
p1311
asVinstall-stem
p1312
Vvmlinux
p1313
ss(Vdescription
p1314
g1287
NVpowerpc64
p1315
tp1316
(dp1317
Vhardware
p1318
V64-bit PowerPC
p1319
ss(Vimage
p1320
g1287
NVpowerpc64
p1321
tp1322
(dp1323
Vconfigs
p1324
(lp1325
Vkernelarch-powerpc/config-arch-64
p1326
aVkernelarch-powerpc/config-arch-64-be
p1327
ass(g225
g1287
g194
tp1328
(dp1329
g228
(lp1330
Vpowerpc64
p1331
asg232
I01
ss(Vbase
p1332
Vppc64el
p1333
tp1334
(dp1335
Vdefault-flavour
p1336
Vpowerpc64le
p1337
sVkernel-arch
p1338
Vpowerpc
p1339
sg192
(lp1340
g194
ass(Vbuild
p1341
g1333
tp1342
(dp1343
Vimage-file
p1344
Vvmlinux
p1345
sVvdso
p1346
I01
ss(Vimage
p1347
g1333
tp1348
(dp1349
Vconfigs
p1350
(lp1351
sVbootloaders
p1352
(lp1353
Vgrub-ieee1275
p1354
asVsuggests
p1355
(lp1356
Vmkvmlinuz
p1357
asVinstall-stem
p1358
Vvmlinux
p1359
ss(Vdescription
p1360
g1333
NVpowerpc64le
p1361
tp1362
(dp1363
Vhardware
p1364
VLittle-endian 64-bit PowerPC
p1365
ss(Vimage
p1366
g1333
NVpowerpc64le
p1367
tp1368
(dp1369
Vconfigs
p1370
(lp1371
Vkernelarch-powerpc/config-arch-64
p1372
aVkernelarch-powerpc/config-arch-64-le
p1373
ass(g225
g1333
g194
tp1374
(dp1375
g228
(lp1376
Vpowerpc64le
p1377
asg232
I01
ss(Vbase
p1378
Vriscv64
p1379
tp1380
(dp1381
Vkernel-arch
p1382
Vriscv
p1383
sVfeaturesets
p1384
(lp1385
Vnone
p1386
ass(Vbuild
p1387
g1379
tp1388
(dp1389
Vimage-file
p1390
Varch/riscv/boot/Image
p1391
sVvdso
p1392
I01
ss(Vimage
p1393
g1379
tp1394
(dp1395
Vinstall-stem
p1396
Vvmlinux
p1397
ss(Vdescription
p1398
g1379
NVriscv64
p1399
tp1400
(dp1401
Vhardware
p1402
V64-bit RISC-V platforms
p1403
sVhardware-long
p1404
V64-bit RISC-V platforms
p1405
ss(Vbase
p1406
g1379
Vnone
p1407
tp1408
(dp1409
Vflavours
p1410
(lp1411
Vriscv64
p1412
asVdefault-flavour
p1413
Vriscv64
p1414
ss(Vbase
p1415
Vs390
p1416
tp1417
(dp1418
Vkernel-arch
p1419
Vs390
p1420
sVfeaturesets
p1421
(lp1422
ss(Vbase
p1423
Vs390x
p1424
tp1425
(dp1426
Vdefault-flavour
p1427
Vs390x
p1428
sVkernel-arch
p1429
Vs390
p1430
sg192
(lp1431
g194
ass(Vbuild
p1432
g1424
tp1433
(dp1434
Vimage-file
p1435
Varch/s390/boot/bzImage
p1436
sVvdso
p1437
I01
ss(Vimage
p1438
g1424
tp1439
(dp1440
Vbootloaders
p1441
(lp1442
Vs390-tools
p1443
asVinstall-stem
p1444
Vvmlinuz
p1445
ss(Vrelations
p1446
g1424
tp1447
(dp1448
Vheaders%gcc-8
p1449
Vlinux-compiler-gcc-8-s390
p1450
ss(Vdescription
p1451
g1424
NVs390x
p1452
tp1453
(dp1454
Vhardware
p1455
VIBM zSeries
p1456
ss(g225
g1424
g194
tp1457
(dp1458
g228
(lp1459
Vs390x
p1460
asg232
I01
ss(Vbase
p1461
Vsh3
p1462
tp1463
(dp1464
Vkernel-arch
p1465
Vsh
p1466
sVfeaturesets
p1467
(lp1468
ss(Vbase
p1469
Vsh4
p1470
tp1471
(dp1472
Vkernel-arch
p1473
Vsh
p1474
sg192
(lp1475
g194
ass(Vbuild
p1476
g1470
tp1477
(dp1478
Vimage-file
p1479
Varch/sh/boot/zImage
p1480
ss(Vimage
p1481
g1470
tp1482
(dp1483
Vinstall-stem
p1484
Vvmlinuz
p1485
ss(Vdescription
p1486
g1470
NVsh7751r
p1487
tp1488
(dp1489
Vhardware
p1490
Vsh7751r
p1491
sVhardware-long
p1492
VRenesas SH7751R R2D plus board
p1493
ss(Vdescription
p1494
g1470
NVsh7785lcr
p1495
tp1496
(dp1497
Vhardware
p1498
Vsh7785lcr
p1499
sVhardware-long
p1500
VRenesas SH7785 reference board
p1501
ss(Vimage
p1502
g1470
NVsh7785lcr
p1503
tp1504
(dp1505
Vrecommends
p1506
(lp1507
Vu-boot-tools
p1508
asVcheck-size
p1509
I4194304
ss(g225
g1470
g194
tp1510
(dp1511
g228
(lp1512
Vsh7751r
p1513
aVsh7785lcr
p1514
asg232
I01
ss(Vbase
p1515
Vsparc
p1516
tp1517
(dp1518
Vkernel-arch
p1519
Vsparc
p1520
sVfeaturesets
p1521
(lp1522
ss(Vbase
p1523
Vsparc64
p1524
tp1525
(dp1526
Vdefault-flavour
p1527
Vsparc64-smp
p1528
sVkernel-arch
p1529
Vsparc
p1530
sg192
(lp1531
g194
ass(Vbuild
p1532
g1524
tp1533
(dp1534
Vimage-file
p1535
Vvmlinux
p1536
ss(Vimage
p1537
g1524
tp1538
(dp1539
Vconfigs
p1540
(lp1541
sVbootloaders
p1542
(lp1543
Vgrub-ieee1275
p1544
asVsuggests
p1545
(lp1546
Vfdutils
p1547
asVinstall-stem
p1548
Vvmlinux
p1549
ss(Vdescription
p1550
g1524
NVsparc64
p1551
tp1552
(dp1553
Vhardware
p1554
Vuniprocessor 64-bit UltraSPARC
p1555
ss(Vimage
p1556
g1524
NVsparc64
p1557
tp1558
(dp1559
Vconfigs
p1560
(lp1561
Vkernelarch-sparc/config-up
p1562
ass(Vdescription
p1563
g1524
NVsparc64-smp
p1564
tp1565
(dp1566
Vhardware
p1567
Vmultiprocessor 64-bit UltraSPARC
p1568
ss(Vimage
p1569
g1524
NVsparc64-smp
p1570
tp1571
(dp1572
Vconfigs
p1573
(lp1574
Vkernelarch-sparc/config-smp
p1575
ass(g225
g1524
g194
tp1576
(dp1577
g228
(lp1578
Vsparc64
p1579
aVsparc64-smp
p1580
asg232
I01
ss(Vbase
p1581
Vx32
p1582
tp1583
(dp1584
Vkernel-arch
p1585
Vx86
p1586
sVfeaturesets
p1587
(lp1588
ss(Vabi
p1589
NVrt
p1590
tp1591
(dp1592
Vignore-changes
p1593
(lp1594
V*
p1595
ass(Vdescription
p1596
Ng1590
tp1597
(dp1598
Vpart-long-rt
p1599
VThis kernel includes the PREEMPT_RT realtime patch set.
p1600
sVpart-short-rt
p1601
VPREEMPT_RT
p1602
sVparts
p1603
(lp1604
Vrt
p1605
ass(Vversion
p1606
tp1607
(dp1608
Vsource
p1609
V5.10.46-4+apertis2~2021
p1610
sVupstream
p1611
V5.10
p1612
sVabiname_base
p1613
V5.10.0
p1614
sVabiname
p1615
V5.10.0-8
p1616
ss.