cdebian_linux.config
ConfigCore
p0
(tRp1
(Vpackages
p2
tp3
(dp4
Vinstaller
p5
I00
ss(Vabi
p6
tp7
(dp8
Vabiname
p9
V2
p10
sVignore-changes
p11
(lp12
V__cpuhp_*
p13
aVbpf_analyzer
p14
aVcxl_*
p15
aVdax_flush
p16
aVieee80211_nullfunc_get
p17
aVinet_add_protocol
p18
aVinet_del_protocol
p19
aViommu_device_*
p20
aVmm_iommu_*
p21
aVmv_mbus_*
p22
aVperf_*
p23
aVregister_cxl_calls
p24
aVregister_key_type
p25
aVunregister_cxl_calls
p26
aV*_hw_breakpoint
p27
aVmodule:drivers/crypto/ccp/*
p28
aVmodule:drivers/hv/*
p29
aVmodule:drivers/gpu/drm/sun4i/*
p30
aVmodule:drivers/iio/**
p31
aVmodule:drivers/misc/cxl/*
p32
aVmodule:drivers/mtd/nand/*
p33
aVmodule:drivers/net/ethernet/**
p34
aVmodule:drivers/net/wireless/**
p35
aVmodule:drivers/nvdimm/*
p36
aVmodule:drivers/nvme/**
p37
aVmodule:drivers/power/supply/bq27xxx_battery
p38
aVmodule:drivers/scsi/cxgbi/*
p39
aVmodule:drivers/scsi/libiscs*
p40
aVmodule:drivers/scsi/qla2xxx/qla2xxx
p41
aVmodule:drivers/scsi/ufs/*
p42
aVmodule:drivers/target/**
p43
aVmodule:drivers/usb/chipidea/**
p44
aVmodule:drivers/usb/gadget/**
p45
aVmodule:drivers/usb/host/**
p46
aVmodule:drivers/usb/musb/**
p47
aVmodule:fs/nfs/**
p48
aVmodule:net/ceph/libceph
p49
aVmodule:net/l2tp/**
p50
aVmodule:net/rxrpc/rxrpc
p51
aVmodule:net/sctp/**
p52
aVmodule:sound/core/seq/**
p53
aVmodule:sound/firewire/snd-firewire-lib
p54
aVmodule:sound/pci/hda/*
p55
aVbtree_*
p56
aVvisitor*
p57
aVcan_rx_register
p58
aVip6_xmit
p59
aVmodule:net/dccp/dccp
p60
aVmodule:net/rds/rds
p61
aVdevfreq_*
p62
aVdevm_devfreq_*
p63
aVupdate_devfreq
p64
aVmodule:drivers/infiniband/**
p65
aVacpi_ec_add_query_handler
p66
aVacpi_ec_remove_query_handler
p67
aVfirst_ec
p68
aVdebugfs_create_automount
p69
aVmodule:drivers/iio/imu/inv_mpu6050/*
p70
aVdrm_crtc_accurate_vblank_count
p71
aVacpi_nfit_desc_init
p72
aVacpi_nfit_init
p73
aVloop_register_transfer
p74
aVxen_xlate_*
p75
aVnf_nat_masquerade_ipv4_register_notifier
p76
aVnf_nat_masquerade_ipv6_register_notifier
p77
aVmodule:drivers/scsi/hisi_sas/*
p78
aV__gfn_*
p79
aV__kvmhv_*
p80
aV__kvm_*
p81
aV__xive_vm_h_*
p82
aVgfn_*
p83
aVh_ipi_redirect
p84
aVhalt_poll_ns*
p85
aVkvm_*
p86
aVkvmhv_*
p87
aVkvmppc_*
p88
aVmark_page_dirty
p89
aVvcpu_*
p90
aVmodule:arch/powerpc/kvm/*
p91
aVmodule:arch/s390/kvm/*
p92
aVmodule:arch/x86/kvm/*
p93
ass(Vbase
p94
tp95
(dp96
Varches
p97
(lp98
Valpha
p99
aVamd64
p100
aVarm64
p101
aVarm64ilp32
p102
aVarmel
p103
aVarmhf
p104
aVhppa
p105
aVi386
p106
aVia64
p107
aVm68k
p108
aVmips
p109
aVmips64
p110
aVmips64el
p111
aVmips64r6
p112
aVmips64r6el
p113
aVmipsel
p114
aVmipsn32
p115
aVmipsn32el
p116
aVmipsn32r6
p117
aVmipsn32r6el
p118
aVmipsr6
p119
aVmipsr6el
p120
aVpowerpc
p121
aVppc64
p122
aVppc64el
p123
aVriscv64
p124
aVs390
p125
aVs390x
p126
aVsh3
p127
aVsh4
p128
aVsparc
p129
aVsparc64
p130
aVx32
p131
asVcompiler
p132
Vgcc-8
p133
sVfeaturesets
p134
(lp135
Vnone
p136
aVrt
p137
ass(Vbuild
p138
tp139
(dp140
Vdebug-info
p141
I01
sVsigned-code
p142
I00
ss(Vbase
p143
NVrt
p144
tp145
(dp146
Venabled
p147
I00
ss(Vdescription
p148
tp149
(dp150
Vpart-long-up
p151
VThis kernel is not suitable for SMP (multi-processor,\u000amulti-core or hyper-threaded) systems.
p152
ss(Vimage
p153
tp154
(dp155
Vinitramfs-generators
p156
(lp157
Vinitramfs-tools
p158
aVinitramfs-fallback
p159
asVbreaks
p160
(lp161
Vwireless-regdb (<< 2019.06.03-1~)
p162
asVrecommends
p163
(lp164
Vapparmor
p165
ass(Vrelations
p166
tp167
(dp168
Vgcc-8
p169
Vgcc-8 <!stage1 !cross !pkg.linux.nokernel>, gcc-8-@gnu-type-package@ <!stage1 cross !pkg.linux.nokernel>
p170
sVinitramfs-fallback
p171
Vlinux-initramfs-tool
p172
sVinitramfs-tools
p173
Vinitramfs-tools (>= 0.120+deb8u2)
p174
ss(Vbase
p175
Valpha
p176
tp177
(dp178
Vdefault-flavour
p179
Valpha-smp
p180
sVkernel-arch
p181
Valpha
p182
sVfeaturesets
p183
(lp184
Vnone
p185
ass(Vbuild
p186
g176
tp187
(dp188
Vimage-file
p189
Varch/alpha/boot/vmlinux.gz
p190
ss(Vimage
p191
g176
tp192
(dp193
Vsuggests
p194
(lp195
Vaboot
p196
aVfdutils
p197
asVinstall-stem
p198
Vvmlinuz
p199
ss(Vdescription
p200
g176
NValpha-generic
p201
tp202
(dp203
Vhardware
p204
VAlpha
p205
sVhardware-long
p206
VDEC Alpha systems with extended kernel start address (Wildfire, Titan, Marvel)
p207
ss(Vdescription
p208
g176
NValpha-smp
p209
tp210
(dp211
Vhardware
p212
VAlpha SMP
p213
sVhardware-long
p214
VDEC Alpha SMP systems with extended kernel start address (Wildfire, Titan, Marvel)
p215
ss(Vbase
p216
g176
g185
tp217
(dp218
Vflavours
p219
(lp220
Valpha-generic
p221
aValpha-smp
p222
asVimplicit-flavour
p223
I01
ss(Vbase
p224
Vamd64
p225
tp226
(dp227
Vfeaturesets
p228
(lp229
Vnone
p230
asVkernel-arch
p231
Vx86
p232
ss(Vbuild
p233
g225
tp234
(dp235
Vimage-file
p236
Varch/x86/boot/bzImage
p237
sVsigned-code
p238
I00
sVvdso
p239
I01
ss(Vimage
p240
g225
tp241
(dp242
Vbootloaders
p243
(lp244
Vgrub-pc
p245
aVgrub-efi-amd64
p246
aVextlinux
p247
asVinstall-stem
p248
Vvmlinuz
p249
sVbreaks
p250
(lp251
Vxserver-xorg-input-vmmouse (<< 1:13.0.99)
p252
ass(Vrelations
p253
g225
tp254
(dp255
Vheaders%gcc-8
p256
Vlinux-compiler-gcc-8-x86
p257
ss(Vdescription
p258
g225
NVamd64
p259
tp260
(dp261
Vhardware
p262
V64-bit PCs
p263
sVhardware-long
p264
VPCs with AMD64, Intel 64 or VIA Nano processors
p265
ss(Vdescription
p266
g225
NVcloud-amd64
p267
tp268
(dp269
Vhardware
p270
Vx86-64 cloud
p271
sVhardware-long
p272
VAmazon EC2, Google Compute Engine and Microsoft Azure cloud platforms
p273
ss(Vbase
p274
g225
Vnone
p275
tp276
(dp277
Vflavours
p278
(lp279
Vamd64
p280
asVdefault-flavour
p281
Vamd64
p282
ss(Vimage
p283
g225
g275
Vcloud-amd64
p284
tp285
(dp286
Vconfigs
p287
(lp288
Vconfig.cloud
p289
aVamd64/config.cloud-amd64
p290
ass(Vbase
p291
Varm64
p292
tp293
(dp294
Vcross-compile-compat
p295
Varm-linux-gnueabihf-
p296
sVkernel-arch
p297
Varm64
p298
sVfeaturesets
p299
(lp300
Vnone
p301
ass(Vbuild
p302
g292
tp303
(dp304
Vimage-file
p305
Varch/arm64/boot/Image
p306
sVsigned-code
p307
I00
sVvdso
p308
I01
ss(Vimage
p309
g292
tp310
(dp311
Vinstall-stem
p312
Vvmlinuz
p313
sVbreaks
p314
(lp315
Vlibmozjs185-1.0
p316
aVlibmozjs-24-0 (<< 24.2.0-5.1~)
p317
ass(Vdescription
p318
g292
NVarm64
p319
tp320
(dp321
Vhardware
p322
V64-bit ARMv8 machines
p323
ss(Vdescription
p324
g292
NVcloud-arm64
p325
tp326
(dp327
Vhardware
p328
Varm64 cloud
p329
sVhardware-long
p330
Vcloud platforms supporting arm64 virtual machines
p331
ss(Vimage
p332
g292
NVarm64
p333
tp334
(dp335
s(Vrelations
p336
g292
tp337
(dp338
Vgcc-8
p339
Vgcc-8 <!stage1 !cross !pkg.linux.nokernel>, gcc-8-aarch64-linux-gnu <!stage1 cross !pkg.linux.nokernel>, gcc-arm-linux-gnueabihf <!stage1 !pkg.linux.nokernel>
p340
sVheaders%gcc-8
p341
Vgcc-8
p342
ss(Vbase
p343
g292
Vnone
p344
tp345
(dp346
Vflavours
p347
(lp348
Varm64
p349
asVdefault-flavour
p350
Varm64
p351
ss(Vimage
p352
g292
g344
Vcloud-arm64
p353
tp354
(dp355
Vconfigs
p356
(lp357
Vconfig.cloud
p358
aVarm64/config.cloud-arm64
p359
ass(Vbase
p360
Varm64ilp32
p361
tp362
(dp363
Vkernel-arch
p364
Varm64
p365
sVfeaturesets
p366
(lp367
ss(Vbase
p368
Varmel
p369
tp370
(dp371
Vkernel-arch
p372
Varm
p373
sg183
(lp374
g185
ass(Vbuild
p375
g369
tp376
(dp377
Vimage-file
p378
Varch/arm/boot/zImage
p379
sVuncompressed-image-file
p380
Varch/arm/boot/Image
p381
ss(Vimage
p382
g369
tp383
(dp384
Vinstall-stem
p385
Vvmlinuz
p386
ss(Vrelations
p387
g369
tp388
(dp389
Vheaders%gcc-8
p390
Vlinux-compiler-gcc-8-arm
p391
ss(Vdescription
p392
g369
NVmarvell
p393
tp394
(dp395
Vhardware
p396
VMarvell Kirkwood/Orion
p397
sVhardware-long
p398
VMarvell Kirkwood and Orion based systems (https://wiki.debian.org/ArmEabiPort#Supported_hardware)
p399
ss(Vdescription
p400
g369
NVrpi
p401
tp402
(dp403
Vhardware
p404
VRaspberry Pi and Pi Zero
p405
sVhardware-long
p406
VRaspberry Pi, Raspberry Pi Zero based systems
p407
ss(Vimage
p408
g369
NVmarvell
p409
tp410
(dp411
Vrecommends
p412
(lp413
Vu-boot-tools
p414
asVcheck-size
p415
I2729712
sVcheck-size-with-dtb
p416
I01
sVcheck-uncompressed-size
p417
I7340032
sVbreaks
p418
(lp419
Vflash-kernel (<< 3.57~)
p420
ass(g216
g369
g185
tp421
(dp422
g219
(lp423
Vmarvell
p424
aVrpi
p425
asg223
I01
ss(Vbase
p426
Varmhf
p427
tp428
(dp429
Vfeaturesets
p430
(lp431
Vnone
p432
asVkernel-arch
p433
Varm
p434
ss(Vbuild
p435
g427
tp436
(dp437
Vimage-file
p438
Varch/arm/boot/zImage
p439
sVvdso
p440
I01
ss(Vimage
p441
g427
tp442
(dp443
Vinstall-stem
p444
Vvmlinuz
p445
ss(Vrelations
p446
g427
tp447
(dp448
Vheaders%gcc-8
p449
Vlinux-compiler-gcc-8-arm
p450
ss(Vdescription
p451
g427
NVarmmp
p452
tp453
(dp454
Vhardware
p455
VARMv7 multiplatform compatible SoCs
p456
sVhardware-long
p457
VARMv7 multiplatform kernel. See\u000ahttps://wiki.debian.org/DebianKernel/ARMMP for details of supported\u000aplatforms
p458
ss(Vdescription
p459
g427
NVarmmp-lpae
p460
tp461
(dp462
Vhardware
p463
VARMv7 multiplatform compatible SoCs supporting LPAE
p464
sVhardware-long
p465
VARMv7 multiplatform kernel supporting LPAE. See\u000ahttps://wiki.debian.org/DebianKernel/ARMMP for details of supported\u000aplatforms.
p466
ss(Vbase
p467
g427
Vnone
p468
tp469
(dp470
Vflavours
p471
(lp472
Varmmp
p473
aVarmmp-lpae
p474
asVdefault-flavour
p475
Varmmp
p476
ss(Vbase
p477
Vhppa
p478
tp479
(dp480
Vdefault-flavour
p481
Vparisc
p482
sVkernel-arch
p483
Vparisc
p484
sg183
(lp485
g185
ass(Vbuild
p486
g478
tp487
(dp488
Vimage-file
p489
Varch/parisc/boot/bzImage
p490
sVdebug-info
p491
I00
ss(Vimage
p492
g478
tp493
(dp494
Vsuggests
p495
(lp496
Vpalo
p497
asVinstall-stem
p498
Vvmlinuz
p499
ss(Vdescription
p500
g478
NVparisc
p501
tp502
(dp503
Vhardware
p504
V32-bit PA-RISC
p505
sVhardware-long
p506
VHP PA-RISC 32-bit systems with max 4 GB RAM
p507
ss(Vbase
p508
g478
NVparisc64
p509
tp510
(dp511
Vcflags
p512
V-fno-cse-follow-jumps
p513
sVoverride-host-type
p514
Vhppa64-linux-gnu
p515
ss(Vdescription
p516
g478
NVparisc64
p517
tp518
(dp519
Vhardware
p520
V64-bit PA-RISC
p521
sVhardware-long
p522
VHP PA-RISC 64-bit systems with support for more than 4 GB RAM
p523
ss(Vrelations
p524
g478
tp525
(dp526
Vgcc-8
p527
Vgcc-8 <!stage1 !cross !pkg.linux.nokernel>, gcc-8-hppa-linux-gnu <!stage1 cross !pkg.linux.nokernel>, binutils-hppa64-linux-gnu <!stage1 !pkg.linux.nokernel>, gcc-8-hppa64-linux-gnu <!stage1 !pkg.linux.nokernel>
p528
ss(g216
g478
g185
tp529
(dp530
g219
(lp531
Vparisc
p532
aVparisc64
p533
asg223
I01
ss(Vbase
p534
Vi386
p535
tp536
(dp537
Vfeaturesets
p538
(lp539
Vnone
p540
asVkernel-arch
p541
Vx86
p542
ss(Vbuild
p543
g535
tp544
(dp545
Vimage-file
p546
Varch/x86/boot/bzImage
p547
sVsigned-code
p548
I00
sVvdso
p549
I01
ss(Vdescription
p550
g535
tp551
(dp552
Vpart-long-pae
p553
VThis kernel requires PAE (Physical Address Extension).\u000aThis feature is supported by the Intel Pentium Pro/II/III/4/4M/D, Xeon,\u000aCore and Atom; AMD Geode NX, Athlon (K7), Duron, Opteron, Sempron,\u000aTurion or Phenom; Transmeta Efficeon; VIA C7; and some other processors.
p554
ss(Vimage
p555
g535
tp556
(dp557
Vbootloaders
p558
(lp559
Vgrub-pc
p560
aVgrub-efi-ia32
p561
aVextlinux
p562
asVinstall-stem
p563
Vvmlinuz
p564
sVbreaks
p565
(lp566
Vxserver-xorg-input-vmmouse (<< 1:13.0.99)
p567
ass(Vrelations
p568
g535
tp569
(dp570
Vheaders%gcc-8
p571
Vlinux-compiler-gcc-8-x86
p572
ss(Vdescription
p573
g535
NV686
p574
tp575
(dp576
Vhardware
p577
Volder PCs
p578
sVhardware-long
p579
VPCs with one or more processors not supporting PAE
p580
ss(Vdescription
p581
g535
NV686-pae
p582
tp583
(dp584
Vhardware
p585
Vmodern PCs
p586
sVhardware-long
p587
VPCs with one or more processors supporting PAE
p588
sVparts
p589
(lp590
Vpae
p591
ass(Vbase
p592
g535
Vnone
p593
tp594
(dp595
Vflavours
p596
(lp597
V686
p598
aV686-pae
p599
asVdefault-flavour
p600
V686-pae
p601
ss(Vbase
p602
Via64
p603
tp604
(dp605
Vdefault-flavour
p606
Vitanium
p607
sVkernel-arch
p608
Via64
p609
sg183
(lp610
g185
ass(Vbuild
p611
g603
tp612
(dp613
Vimage-file
p614
Vvmlinux.gz
p615
ss(Vimage
p616
g603
tp617
(dp618
Vbootloaders
p619
(lp620
Vgrub-efi-ia64
p621
asVinstall-stem
p622
Vvmlinuz
p623
ss(Vdescription
p624
g603
NVitanium
p625
tp626
(dp627
Vhardware
p628
VItanium (Merced)
p629
sVhardware-long
p630
Vsystems with original Itanium (Merced) processors
p631
ss(Vdescription
p632
g603
NVmckinley
p633
tp634
(dp635
Vhardware
p636
VItanium 2+
p637
sVhardware-long
p638
Vsystems with Itanium 2 or 9300/9500/9700-series processors
p639
ss(g216
g603
g185
tp640
(dp641
g219
(lp642
Vitanium
p643
aVmckinley
p644
asg223
I01
ss(Vbase
p645
Vm68k
p646
tp647
(dp648
Vcflags
p649
V-ffreestanding
p650
sVdefault-flavour
p651
Vm68k
p652
sVkernel-arch
p653
Vm68k
p654
sg183
(lp655
g185
ass(Vbuild
p656
g646
tp657
(dp658
Vimage-file
p659
Vvmlinux
p660
ss(Vimage
p661
g646
tp662
(dp663
Vsuggests
p664
(lp665
Vvmelilo
p666
aVfdutils
p667
asVinstall-stem
p668
Vvmlinux
p669
ss(Vdescription
p670
g646
NVm68k
p671
tp672
(dp673
Vhardware
p674
VMotorola MC68020+ family
p675
ss(g216
g646
g185
tp676
(dp677
g219
(lp678
Vm68k
p679
asg223
I01
ss(Vbase
p680
Vmips
p681
tp682
(dp683
Vkernel-arch
p684
Vmips
p685
sg183
(lp686
g185
ass(Vbuild
p687
g681
tp688
(dp689
Vimage-file
p690
Vvmlinuz
p691
ss(Vimage
p692
g681
tp693
(dp694
Vinstall-stem
p695
Vvmlinuz
p696
ss(Vdescription
p697
g681
NV4kc-malta
p698
tp699
(dp700
Vhardware
p701
VMIPS Malta
p702
sVhardware-long
p703
VMIPS Malta boards
p704
ss(Vimage
p705
g681
NV4kc-malta
p706
tp707
(dp708
Vconfigs
p709
(lp710
Vkernelarch-mips/config.malta
p711
aVkernelarch-mips/config.mips32r2
p712
ass(Vdescription
p713
g681
NV5kc-malta
p714
tp715
(dp716
Vhardware
p717
VMIPS Malta (64-bit)
p718
sVhardware-long
p719
VMIPS Malta boards (64-bit)
p720
ss(Vimage
p721
g681
NV5kc-malta
p722
tp723
(dp724
Vconfigs
p725
(lp726
Vkernelarch-mips/config.malta
p727
aVkernelarch-mips/config.mips64r2
p728
ass(Vdescription
p729
g681
NVocteon
p730
tp731
(dp732
Vhardware
p733
VOcteon
p734
sVhardware-long
p735
VCavium Networks Octeon
p736
ss(Vbuild
p737
g681
NVocteon
p738
tp739
(dp740
Vimage-file
p741
Vvmlinux
p742
ss(Vimage
p743
g681
NVocteon
p744
tp745
(dp746
Vinstall-stem
p747
Vvmlinux
p748
sVconfigs
p749
(lp750
Vkernelarch-mips/config.octeon
p751
ass(g216
g681
g185
tp752
(dp753
g219
(lp754
V4kc-malta
p755
aV5kc-malta
p756
aVocteon
p757
asg223
I01
ss(Vbase
p758
Vmips64
p759
tp760
(dp761
Vkernel-arch
p762
Vmips
p763
sg183
(lp764
g185
ass(Vbuild
p765
g759
tp766
(dp767
Vimage-file
p768
Vvmlinuz
p769
ss(Vimage
p770
g759
tp771
(dp772
Vinstall-stem
p773
Vvmlinuz
p774
ss(Vdescription
p775
g759
NV5kc-malta
p776
tp777
(dp778
Vhardware
p779
VMIPS Malta
p780
sVhardware-long
p781
VMIPS Malta boards
p782
ss(Vimage
p783
g759
NV5kc-malta
p784
tp785
(dp786
Vconfigs
p787
(lp788
Vkernelarch-mips/config.malta
p789
aVkernelarch-mips/config.mips64r2
p790
ass(Vdescription
p791
g759
NVocteon
p792
tp793
(dp794
Vhardware
p795
VOcteon
p796
sVhardware-long
p797
VCavium Networks Octeon
p798
ss(Vbuild
p799
g759
NVocteon
p800
tp801
(dp802
Vimage-file
p803
Vvmlinux
p804
ss(Vimage
p805
g759
NVocteon
p806
tp807
(dp808
Vinstall-stem
p809
Vvmlinux
p810
sVconfigs
p811
(lp812
Vkernelarch-mips/config.octeon
p813
ass(g216
g759
g185
tp814
(dp815
g219
(lp816
V5kc-malta
p817
aVocteon
p818
asg223
I01
ss(Vbase
p819
Vmips64el
p820
tp821
(dp822
Vkernel-arch
p823
Vmips
p824
sg183
(lp825
g185
ass(Vbuild
p826
g820
tp827
(dp828
Vimage-file
p829
Vvmlinuz
p830
ss(Vimage
p831
g820
tp832
(dp833
Vinstall-stem
p834
Vvmlinuz
p835
ss(Vdescription
p836
g820
NV5kc-malta
p837
tp838
(dp839
Vhardware
p840
VMIPS Malta
p841
sVhardware-long
p842
VMIPS Malta boards
p843
ss(Vimage
p844
g820
NV5kc-malta
p845
tp846
(dp847
Vconfigs
p848
(lp849
Vkernelarch-mips/config.malta
p850
aVkernelarch-mips/config.mips64r2
p851
ass(Vdescription
p852
g820
NVloongson-3
p853
tp854
(dp855
Vhardware
p856
VLoongson 3A/3B
p857
sVhardware-long
p858
VLoongson 3A or 3B based systems (e.g. from Loongson or Lemote)
p859
ss(Vimage
p860
g820
NVloongson-3
p861
tp862
(dp863
Vconfigs
p864
(lp865
Vkernelarch-mips/config.loongson-3
p866
ass(Vdescription
p867
g820
NVocteon
p868
tp869
(dp870
Vhardware
p871
VOcteon
p872
sVhardware-long
p873
VCavium Networks Octeon
p874
ss(Vbuild
p875
g820
NVocteon
p876
tp877
(dp878
Vimage-file
p879
Vvmlinux
p880
ss(Vimage
p881
g820
NVocteon
p882
tp883
(dp884
Vinstall-stem
p885
Vvmlinux
p886
sVconfigs
p887
(lp888
Vkernelarch-mips/config.octeon
p889
ass(g216
g820
g185
tp890
(dp891
g219
(lp892
V5kc-malta
p893
aVloongson-3
p894
aVocteon
p895
asg223
I01
ss(Vbase
p896
Vmips64r6
p897
tp898
(dp899
Vdefault-flavour
p900
Vmips64r6
p901
sVkernel-arch
p902
Vmips
p903
sg183
(lp904
g185
ass(Vbuild
p905
g897
tp906
(dp907
Vimage-file
p908
Vvmlinux
p909
ss(Vimage
p910
g897
tp911
(dp912
Vinstall-stem
p913
Vvmlinux
p914
ss(Vdescription
p915
g897
NVmips64r6
p916
tp917
(dp918
Vhardware
p919
VMIPS R6 (64 bit, big endian)
p920
sVhardware-long
p921
VMIPS R6 (64 bit, big endian)
p922
ss(Vimage
p923
g897
NVmips64r6
p924
tp925
(dp926
Vconfigs
p927
(lp928
Vkernelarch-mips/config.boston
p929
aVkernelarch-mips/config.mips64r6
p930
ass(g216
g897
g185
tp931
(dp932
g219
(lp933
Vmips64r6
p934
asg223
I01
ss(Vbase
p935
Vmips64r6el
p936
tp937
(dp938
Vdefault-flavour
p939
Vmips64r6el
p940
sVkernel-arch
p941
Vmips
p942
sg183
(lp943
g185
ass(Vbuild
p944
g936
tp945
(dp946
Vimage-file
p947
Vvmlinux
p948
ss(Vimage
p949
g936
tp950
(dp951
Vinstall-stem
p952
Vvmlinux
p953
ss(Vdescription
p954
g936
NVmips64r6el
p955
tp956
(dp957
Vhardware
p958
VMIPS R6 (64 bit, little endian)
p959
sVhardware-long
p960
VMIPS R6 (64 bit, little endian)
p961
ss(Vimage
p962
g936
NVmips64r6el
p963
tp964
(dp965
Vconfigs
p966
(lp967
Vkernelarch-mips/config.boston
p968
aVkernelarch-mips/config.mips64r6
p969
ass(g216
g936
g185
tp970
(dp971
g219
(lp972
Vmips64r6el
p973
asg223
I01
ss(Vbase
p974
Vmipsel
p975
tp976
(dp977
Vkernel-arch
p978
Vmips
p979
sg183
(lp980
g185
ass(Vbuild
p981
g975
tp982
(dp983
Vimage-file
p984
Vvmlinuz
p985
ss(Vimage
p986
g975
tp987
(dp988
Vinstall-stem
p989
Vvmlinuz
p990
ss(Vdescription
p991
g975
NV4kc-malta
p992
tp993
(dp994
Vhardware
p995
VMIPS Malta
p996
sVhardware-long
p997
VMIPS Malta boards
p998
ss(Vimage
p999
g975
NV4kc-malta
p1000
tp1001
(dp1002
Vconfigs
p1003
(lp1004
Vkernelarch-mips/config.malta
p1005
aVkernelarch-mips/config.mips32r2
p1006
ass(Vdescription
p1007
g975
NV5kc-malta
p1008
tp1009
(dp1010
Vhardware
p1011
VMIPS Malta (64-bit)
p1012
sVhardware-long
p1013
VMIPS Malta boards (64-bit)
p1014
ss(Vimage
p1015
g975
NV5kc-malta
p1016
tp1017
(dp1018
Vconfigs
p1019
(lp1020
Vkernelarch-mips/config.malta
p1021
aVkernelarch-mips/config.mips64r2
p1022
ass(Vdescription
p1023
g975
NVloongson-3
p1024
tp1025
(dp1026
Vhardware
p1027
VLoongson 3A/3B
p1028
sVhardware-long
p1029
VLoongson 3A or 3B based systems (e.g. from Loongson or Lemote)
p1030
ss(Vimage
p1031
g975
NVloongson-3
p1032
tp1033
(dp1034
Vconfigs
p1035
(lp1036
Vkernelarch-mips/config.loongson-3
p1037
ass(Vdescription
p1038
g975
NVocteon
p1039
tp1040
(dp1041
Vhardware
p1042
VOcteon
p1043
sVhardware-long
p1044
VCavium Networks Octeon
p1045
ss(Vbuild
p1046
g975
NVocteon
p1047
tp1048
(dp1049
Vimage-file
p1050
Vvmlinux
p1051
ss(Vimage
p1052
g975
NVocteon
p1053
tp1054
(dp1055
Vinstall-stem
p1056
Vvmlinux
p1057
sVconfigs
p1058
(lp1059
Vkernelarch-mips/config.octeon
p1060
ass(g216
g975
g185
tp1061
(dp1062
g219
(lp1063
V4kc-malta
p1064
aV5kc-malta
p1065
aVloongson-3
p1066
aVocteon
p1067
asg223
I01
ss(Vbase
p1068
Vmipsn32
p1069
tp1070
(dp1071
Vkernel-arch
p1072
Vmips
p1073
sVfeaturesets
p1074
(lp1075
ss(Vbase
p1076
Vmipsn32el
p1077
tp1078
(dp1079
Vkernel-arch
p1080
Vmips
p1081
sVfeaturesets
p1082
(lp1083
ss(Vbase
p1084
Vmipsn32r6
p1085
tp1086
(dp1087
Vkernel-arch
p1088
Vmips
p1089
sVfeaturesets
p1090
(lp1091
ss(Vbase
p1092
Vmipsn32r6el
p1093
tp1094
(dp1095
Vkernel-arch
p1096
Vmips
p1097
sVfeaturesets
p1098
(lp1099
ss(Vbase
p1100
Vmipsr6
p1101
tp1102
(dp1103
Vdefault-flavour
p1104
Vmips32r6
p1105
sVkernel-arch
p1106
Vmips
p1107
sg183
(lp1108
g185
ass(Vbuild
p1109
g1101
tp1110
(dp1111
Vimage-file
p1112
Vvmlinux
p1113
ss(Vimage
p1114
g1101
tp1115
(dp1116
Vinstall-stem
p1117
Vvmlinux
p1118
ss(Vdescription
p1119
g1101
NVmips32r6
p1120
tp1121
(dp1122
Vhardware
p1123
VMIPS R6 (32 bit, big endian)
p1124
sVhardware-long
p1125
VMIPS R6 (32 bit, big endian)
p1126
ss(Vimage
p1127
g1101
NVmips32r6
p1128
tp1129
(dp1130
Vconfigs
p1131
(lp1132
Vkernelarch-mips/config.boston
p1133
aVkernelarch-mips/config.mips32r6
p1134
ass(Vdescription
p1135
g1101
NVmips64r6
p1136
tp1137
(dp1138
Vhardware
p1139
VMIPS R6 (64 bit, big endian)
p1140
sVhardware-long
p1141
VMIPS R6 (64 bit, big endian)
p1142
ss(Vimage
p1143
g1101
NVmips64r6
p1144
tp1145
(dp1146
Vconfigs
p1147
(lp1148
Vkernelarch-mips/config.boston
p1149
aVkernelarch-mips/config.mips64r6
p1150
ass(g216
g1101
g185
tp1151
(dp1152
g219
(lp1153
Vmips32r6
p1154
aVmips64r6
p1155
asg223
I01
ss(Vbase
p1156
Vmipsr6el
p1157
tp1158
(dp1159
Vdefault-flavour
p1160
Vmips32r6el
p1161
sVkernel-arch
p1162
Vmips
p1163
sg183
(lp1164
g185
ass(Vbuild
p1165
g1157
tp1166
(dp1167
Vimage-file
p1168
Vvmlinux
p1169
ss(Vimage
p1170
g1157
tp1171
(dp1172
Vinstall-stem
p1173
Vvmlinux
p1174
ss(Vdescription
p1175
g1157
NVmips32r6el
p1176
tp1177
(dp1178
Vhardware
p1179
VMIPS R6 (32 bit, little endian)
p1180
sVhardware-long
p1181
VMIPS R6 (32 bit, little endian)
p1182
ss(Vimage
p1183
g1157
NVmips32r6el
p1184
tp1185
(dp1186
Vconfigs
p1187
(lp1188
Vkernelarch-mips/config.boston
p1189
aVkernelarch-mips/config.mips32r6
p1190
ass(Vdescription
p1191
g1157
NVmips64r6el
p1192
tp1193
(dp1194
Vhardware
p1195
VMIPS R6 (64 bit, little endian)
p1196
sVhardware-long
p1197
VMIPS R6 (64 bit, little endian)
p1198
ss(Vimage
p1199
g1157
NVmips64r6el
p1200
tp1201
(dp1202
Vconfigs
p1203
(lp1204
Vkernelarch-mips/config.boston
p1205
aVkernelarch-mips/config.mips64r6
p1206
ass(g216
g1157
g185
tp1207
(dp1208
g219
(lp1209
Vmips32r6el
p1210
aVmips64r6el
p1211
asg223
I01
ss(Vbase
p1212
Vpowerpc
p1213
tp1214
(dp1215
Vkernel-arch
p1216
Vpowerpc
p1217
sg183
(lp1218
g185
ass(Vbuild
p1219
g1213
tp1220
(dp1221
Vimage-file
p1222
Vvmlinux
p1223
sVvdso
p1224
I01
ss(Vimage
p1225
g1213
tp1226
(dp1227
Vconfigs
p1228
(lp1229
sVbootloaders
p1230
(lp1231
Vgrub-ieee1275
p1232
asVsuggests
p1233
(lp1234
Vmkvmlinuz
p1235
asVinstall-stem
p1236
Vvmlinux
p1237
ss(Vdescription
p1238
g1213
NVpowerpc
p1239
tp1240
(dp1241
Vhardware
p1242
Vuniprocessor 32-bit PowerPC
p1243
ss(Vdescription
p1244
g1213
NVpowerpc-smp
p1245
tp1246
(dp1247
Vhardware
p1248
Vmultiprocessor 32-bit PowerPC
p1249
ss(Vimage
p1250
g1213
NVpowerpc-smp
p1251
tp1252
(dp1253
Vconfigs
p1254
(lp1255
Vpowerpc/config.powerpc
p1256
aVpowerpc/config.powerpc-smp
p1257
ass(Vdescription
p1258
g1213
NVpowerpc64
p1259
tp1260
(dp1261
Vhardware
p1262
V64-bit PowerPC
p1263
ss(Vimage
p1264
g1213
NVpowerpc64
p1265
tp1266
(dp1267
Vconfigs
p1268
(lp1269
Vkernelarch-powerpc/config-arch-64
p1270
aVkernelarch-powerpc/config-arch-64-be
p1271
ass(g216
g1213
g185
tp1272
(dp1273
g219
(lp1274
Vpowerpc
p1275
aVpowerpc-smp
p1276
aVpowerpc64
p1277
asg223
I01
ss(Vbase
p1278
Vppc64
p1279
tp1280
(dp1281
Vdefault-flavour
p1282
Vpowerpc64
p1283
sVkernel-arch
p1284
Vpowerpc
p1285
sg183
(lp1286
g185
ass(Vbuild
p1287
g1279
tp1288
(dp1289
Vimage-file
p1290
Vvmlinux
p1291
sVvdso
p1292
I01
ss(Vimage
p1293
g1279
tp1294
(dp1295
Vconfigs
p1296
(lp1297
sVbootloaders
p1298
(lp1299
Vgrub-ieee1275
p1300
asVsuggests
p1301
(lp1302
Vmkvmlinuz
p1303
asVinstall-stem
p1304
Vvmlinux
p1305
ss(Vdescription
p1306
g1279
NVpowerpc64
p1307
tp1308
(dp1309
Vhardware
p1310
V64-bit PowerPC
p1311
ss(Vimage
p1312
g1279
NVpowerpc64
p1313
tp1314
(dp1315
Vconfigs
p1316
(lp1317
Vkernelarch-powerpc/config-arch-64
p1318
aVkernelarch-powerpc/config-arch-64-be
p1319
ass(g216
g1279
g185
tp1320
(dp1321
g219
(lp1322
Vpowerpc64
p1323
asg223
I01
ss(Vbase
p1324
Vppc64el
p1325
tp1326
(dp1327
Vdefault-flavour
p1328
Vpowerpc64le
p1329
sVkernel-arch
p1330
Vpowerpc
p1331
sg183
(lp1332
g185
ass(Vbuild
p1333
g1325
tp1334
(dp1335
Vimage-file
p1336
Vvmlinux
p1337
sVvdso
p1338
I01
ss(Vimage
p1339
g1325
tp1340
(dp1341
Vconfigs
p1342
(lp1343
sVbootloaders
p1344
(lp1345
Vgrub-ieee1275
p1346
asVsuggests
p1347
(lp1348
Vmkvmlinuz
p1349
asVinstall-stem
p1350
Vvmlinux
p1351
ss(Vdescription
p1352
g1325
NVpowerpc64le
p1353
tp1354
(dp1355
Vhardware
p1356
VLittle-endian 64-bit PowerPC
p1357
ss(Vimage
p1358
g1325
NVpowerpc64le
p1359
tp1360
(dp1361
Vconfigs
p1362
(lp1363
Vkernelarch-powerpc/config-arch-64
p1364
aVkernelarch-powerpc/config-arch-64-le
p1365
ass(g216
g1325
g185
tp1366
(dp1367
g219
(lp1368
Vpowerpc64le
p1369
asg223
I01
ss(Vbase
p1370
Vriscv64
p1371
tp1372
(dp1373
Vkernel-arch
p1374
Vriscv
p1375
sVfeaturesets
p1376
(lp1377
Vnone
p1378
ass(Vbuild
p1379
g1371
tp1380
(dp1381
Vimage-file
p1382
Varch/riscv/boot/Image
p1383
sVvdso
p1384
I01
ss(Vimage
p1385
g1371
tp1386
(dp1387
Vinstall-stem
p1388
Vvmlinux
p1389
ss(Vdescription
p1390
g1371
NVriscv64
p1391
tp1392
(dp1393
Vhardware
p1394
V64-bit RISC-V platforms
p1395
sVhardware-long
p1396
V64-bit RISC-V platforms
p1397
ss(Vbase
p1398
g1371
Vnone
p1399
tp1400
(dp1401
Vflavours
p1402
(lp1403
Vriscv64
p1404
asVdefault-flavour
p1405
Vriscv64
p1406
ss(Vbase
p1407
Vs390
p1408
tp1409
(dp1410
Vkernel-arch
p1411
Vs390
p1412
sVfeaturesets
p1413
(lp1414
ss(Vbase
p1415
Vs390x
p1416
tp1417
(dp1418
Vdefault-flavour
p1419
Vs390x
p1420
sVkernel-arch
p1421
Vs390
p1422
sg183
(lp1423
g185
ass(Vbuild
p1424
g1416
tp1425
(dp1426
Vimage-file
p1427
Varch/s390/boot/bzImage
p1428
sVvdso
p1429
I01
ss(Vimage
p1430
g1416
tp1431
(dp1432
Vbootloaders
p1433
(lp1434
Vs390-tools
p1435
asVinstall-stem
p1436
Vvmlinuz
p1437
ss(Vrelations
p1438
g1416
tp1439
(dp1440
Vheaders%gcc-8
p1441
Vlinux-compiler-gcc-8-s390
p1442
ss(Vdescription
p1443
g1416
NVs390x
p1444
tp1445
(dp1446
Vhardware
p1447
VIBM zSeries
p1448
ss(g216
g1416
g185
tp1449
(dp1450
g219
(lp1451
Vs390x
p1452
asg223
I01
ss(Vbase
p1453
Vsh3
p1454
tp1455
(dp1456
Vkernel-arch
p1457
Vsh
p1458
sVfeaturesets
p1459
(lp1460
ss(Vbase
p1461
Vsh4
p1462
tp1463
(dp1464
Vkernel-arch
p1465
Vsh
p1466
sg183
(lp1467
g185
ass(Vbuild
p1468
g1462
tp1469
(dp1470
Vimage-file
p1471
Varch/sh/boot/zImage
p1472
ss(Vimage
p1473
g1462
tp1474
(dp1475
Vinstall-stem
p1476
Vvmlinuz
p1477
ss(Vdescription
p1478
g1462
NVsh7751r
p1479
tp1480
(dp1481
Vhardware
p1482
Vsh7751r
p1483
sVhardware-long
p1484
VRenesas SH7751R R2D plus board
p1485
ss(Vdescription
p1486
g1462
NVsh7785lcr
p1487
tp1488
(dp1489
Vhardware
p1490
Vsh7785lcr
p1491
sVhardware-long
p1492
VRenesas SH7785 reference board
p1493
ss(Vimage
p1494
g1462
NVsh7785lcr
p1495
tp1496
(dp1497
Vrecommends
p1498
(lp1499
Vu-boot-tools
p1500
asVcheck-size
p1501
I4194304
ss(g216
g1462
g185
tp1502
(dp1503
g219
(lp1504
Vsh7751r
p1505
aVsh7785lcr
p1506
asg223
I01
ss(Vbase
p1507
Vsparc
p1508
tp1509
(dp1510
Vkernel-arch
p1511
Vsparc
p1512
sVfeaturesets
p1513
(lp1514
ss(Vbase
p1515
Vsparc64
p1516
tp1517
(dp1518
Vdefault-flavour
p1519
Vsparc64-smp
p1520
sVkernel-arch
p1521
Vsparc
p1522
sg183
(lp1523
g185
ass(Vbuild
p1524
g1516
tp1525
(dp1526
Vimage-file
p1527
Vvmlinux
p1528
ss(Vimage
p1529
g1516
tp1530
(dp1531
Vconfigs
p1532
(lp1533
sVbootloaders
p1534
(lp1535
Vgrub-ieee1275
p1536
asVsuggests
p1537
(lp1538
Vfdutils
p1539
asVinstall-stem
p1540
Vvmlinux
p1541
ss(Vdescription
p1542
g1516
NVsparc64
p1543
tp1544
(dp1545
Vhardware
p1546
Vuniprocessor 64-bit UltraSPARC
p1547
ss(Vimage
p1548
g1516
NVsparc64
p1549
tp1550
(dp1551
Vconfigs
p1552
(lp1553
Vkernelarch-sparc/config-up
p1554
ass(Vdescription
p1555
g1516
NVsparc64-smp
p1556
tp1557
(dp1558
Vhardware
p1559
Vmultiprocessor 64-bit UltraSPARC
p1560
ss(Vimage
p1561
g1516
NVsparc64-smp
p1562
tp1563
(dp1564
Vconfigs
p1565
(lp1566
Vkernelarch-sparc/config-smp
p1567
ass(g216
g1516
g185
tp1568
(dp1569
g219
(lp1570
Vsparc64
p1571
aVsparc64-smp
p1572
asg223
I01
ss(Vbase
p1573
Vx32
p1574
tp1575
(dp1576
Vkernel-arch
p1577
Vx86
p1578
sVfeaturesets
p1579
(lp1580
ss(Vabi
p1581
NVrt
p1582
tp1583
(dp1584
Vignore-changes
p1585
(lp1586
V*
p1587
ass(Vdescription
p1588
Ng1582
tp1589
(dp1590
Vpart-long-rt
p1591
VThis kernel includes the PREEMPT_RT realtime patch set.
p1592
sVpart-short-rt
p1593
VPREEMPT_RT
p1594
sVparts
p1595
(lp1596
Vrt
p1597
ass(Vversion
p1598
tp1599
(dp1600
Vsource
p1601
V5.8.10-1co1
p1602
sVupstream
p1603
V5.8
p1604
sVabiname_base
p1605
V5.8.0
p1606
sVabiname
p1607
V5.8.0-2
p1608
ss.