cdebian_linux.config
ConfigCore
p0
(tRp1
(Vpackages
p2
tp3
(dp4
Vinstaller
p5
I00
ss(Vabi
p6
tp7
(dp8
Vabiname
p9
V6co1
p10
sVignore-changes
p11
(lp12
V__cpuhp_*
p13
aVbpf_analyzer
p14
aVcxl_*
p15
aVdax_flush
p16
aVieee80211_nullfunc_get
p17
aVinet_add_protocol
p18
aVinet_del_protocol
p19
aViommu_device_*
p20
aVmm_iommu_*
p21
aVmv_mbus_*
p22
aVperf_*
p23
aVregister_cxl_calls
p24
aVregister_key_type
p25
aVunregister_cxl_calls
p26
aV*_hw_breakpoint
p27
aVmodule:drivers/crypto/ccp/*
p28
aVmodule:drivers/hv/*
p29
aVmodule:drivers/gpu/drm/sun4i/*
p30
aVmodule:drivers/iio/**
p31
aVmodule:drivers/misc/cxl/*
p32
aVmodule:drivers/mtd/nand/*
p33
aVmodule:drivers/net/ethernet/**
p34
aVmodule:drivers/net/wireless/**
p35
aVmodule:drivers/nvdimm/*
p36
aVmodule:drivers/power/supply/bq27xxx_battery
p37
aVmodule:drivers/scsi/cxgbi/*
p38
aVmodule:drivers/scsi/libiscs*
p39
aVmodule:drivers/scsi/qla2xxx/qla2xxx
p40
aVmodule:drivers/scsi/ufs/*
p41
aVmodule:drivers/target/**
p42
aVmodule:drivers/usb/chipidea/**
p43
aVmodule:drivers/usb/gadget/**
p44
aVmodule:drivers/usb/host/**
p45
aVmodule:drivers/usb/musb/**
p46
aVmodule:fs/nfs/**
p47
aVmodule:net/ceph/libceph
p48
aVmodule:net/l2tp/**
p49
aVmodule:net/rxrpc/rxrpc
p50
aVmodule:net/sctp/**
p51
aVmodule:sound/core/seq/**
p52
aVmodule:sound/firewire/snd-firewire-lib
p53
aVmodule:sound/pci/hda/*
p54
aVbtree_*
p55
aVvisitor*
p56
aVcan_rx_register
p57
aVip6_xmit
p58
aVmodule:net/dccp/dccp
p59
aVmodule:net/rds/rds
p60
aVdevfreq_*
p61
aVdevm_devfreq_*
p62
aVupdate_devfreq
p63
aVmodule:drivers/infiniband/**
p64
aVacpi_ec_add_query_handler
p65
aVacpi_ec_remove_query_handler
p66
aVfirst_ec
p67
aVdebugfs_create_automount
p68
aVmodule:drivers/iio/imu/inv_mpu6050/*
p69
aVdrm_crtc_accurate_vblank_count
p70
aVacpi_nfit_desc_init
p71
aVacpi_nfit_init
p72
aVloop_register_transfer
p73
aVxen_xlate_*
p74
aVnf_nat_masquerade_ipv4_register_notifier
p75
aVnf_nat_masquerade_ipv6_register_notifier
p76
aVmodule:drivers/scsi/hisi_sas/*
p77
aV__kvm_*
p78
aV__xive_vm_h_*
p79
aV_kvmppc_*
p80
aVgfn_to_*
p81
aVkvm_*
p82
aVkvmppc_*
p83
aVmark_page_dirty
p84
aVvcpu_*
p85
aVmodule:arch/x86/kvm/*
p86
aVtm_abort
p87
aVtm_disable
p88
aVtm_enable
p89
ass(Vbase
p90
tp91
(dp92
Varches
p93
(lp94
Valpha
p95
aVamd64
p96
aVarm64
p97
aVarm64ilp32
p98
aVarmel
p99
aVarmhf
p100
aVhppa
p101
aVi386
p102
aVia64
p103
aVm68k
p104
aVmips
p105
aVmips64
p106
aVmips64el
p107
aVmips64r6
p108
aVmips64r6el
p109
aVmipsel
p110
aVmipsn32
p111
aVmipsn32el
p112
aVmipsn32r6
p113
aVmipsn32r6el
p114
aVmipsr6
p115
aVmipsr6el
p116
aVpowerpc
p117
aVpowerpcspe
p118
aVppc64
p119
aVppc64el
p120
aVriscv64
p121
aVs390
p122
aVs390x
p123
aVsh3
p124
aVsh4
p125
aVsparc
p126
aVsparc64
p127
aVx32
p128
asVcompiler
p129
Vgcc-8
p130
sVfeaturesets
p131
(lp132
Vnone
p133
aVrt
p134
ass(Vbuild
p135
tp136
(dp137
Vdebug-info
p138
I01
sVsigned-code
p139
I00
ss(Vbase
p140
NVrt
p141
tp142
(dp143
Venabled
p144
I01
ss(Vdescription
p145
tp146
(dp147
Vpart-long-up
p148
VThis kernel is not suitable for SMP (multi-processor,\u000amulti-core or hyper-threaded) systems.
p149
ss(Vimage
p150
tp151
(dp152
Vinitramfs-generators
p153
(lp154
Vinitramfs-tools
p155
aVinitramfs-fallback
p156
asVrecommends
p157
(lp158
Vapparmor
p159
ass(Vrelations
p160
tp161
(dp162
Vgcc-8
p163
Vgcc-8 <!stage1 !cross !pkg.linux.nokernel>, gcc-8-@gnu-type-package@ <!stage1 cross !pkg.linux.nokernel>
p164
sVinitramfs-fallback
p165
Vlinux-initramfs-tool
p166
sVinitramfs-tools
p167
Vinitramfs-tools (>= 0.120+deb8u2)
p168
ss(Vbase
p169
Valpha
p170
tp171
(dp172
Vkernel-arch
p173
Valpha
p174
sVfeaturesets
p175
(lp176
Vnone
p177
ass(Vbuild
p178
g170
tp179
(dp180
Vimage-file
p181
Varch/alpha/boot/vmlinux.gz
p182
ss(Vimage
p183
g170
tp184
(dp185
Vsuggests
p186
(lp187
Vaboot
p188
aVfdutils
p189
asVinstall-stem
p190
Vvmlinuz
p191
ss(Vdescription
p192
g170
NValpha-generic
p193
tp194
(dp195
Vhardware
p196
VAlpha
p197
sVhardware-long
p198
VDEC Alpha systems with extended kernel start address (Wildfire, Titan, Marvel)
p199
ss(Vdescription
p200
g170
NValpha-smp
p201
tp202
(dp203
Vhardware
p204
VAlpha SMP
p205
sVhardware-long
p206
VDEC Alpha SMP systems with extended kernel start address (Wildfire, Titan, Marvel)
p207
ss(Vbase
p208
g170
g177
tp209
(dp210
Vflavours
p211
(lp212
Valpha-generic
p213
aValpha-smp
p214
asVimplicit-flavour
p215
I01
ss(Vbase
p216
Vamd64
p217
tp218
(dp219
Vfeaturesets
p220
(lp221
Vnone
p222
asVkernel-arch
p223
Vx86
p224
ss(Vbuild
p225
g217
tp226
(dp227
Vdebug-info
p228
I01
sVimage-file
p229
Varch/x86/boot/bzImage
p230
sVsigned-code
p231
I00
sVvdso
p232
I01
ss(Vimage
p233
g217
tp234
(dp235
Vbootloaders
p236
(lp237
Vgrub-pc
p238
aVgrub-efi-amd64
p239
aVextlinux
p240
asVinstall-stem
p241
Vvmlinuz
p242
sVbreaks
p243
(lp244
Vxserver-xorg-input-vmmouse (<< 1:13.0.99)
p245
ass(Vrelations
p246
g217
tp247
(dp248
Vgcc-8
p249
Vgcc-8 (>= 8-20180123-1~) <!stage1 !cross !pkg.linux.nokernel>, gcc-8-x86-64-linux-gnu (>= 8-20180123-1~) <!stage1 cross !pkg.linux.nokernel>
p250
sVheaders%gcc-8
p251
Vlinux-compiler-gcc-8-x86
p252
ss(Vdescription
p253
g217
NVamd64
p254
tp255
(dp256
Vhardware
p257
V64-bit PCs
p258
sVhardware-long
p259
VPCs with AMD64, Intel 64 or VIA Nano processors
p260
ss(Vdescription
p261
g217
NVcloud-amd64
p262
tp263
(dp264
Vhardware
p265
Vx86-64 cloud
p266
sVhardware-long
p267
VAmazon EC2, Google Compute Engine and Microsoft Azure cloud platforms
p268
ss(Vbase
p269
g217
Vnone
p270
tp271
(dp272
Vflavours
p273
(lp274
Vamd64
p275
ass(Vbase
p276
Varm64
p277
tp278
(dp279
Vkernel-arch
p280
Varm64
p281
sVfeaturesets
p282
(lp283
Vnone
p284
aVrt
p285
ass(Vbuild
p286
g277
tp287
(dp288
Vdebug-info
p289
I01
sVimage-file
p290
Varch/arm64/boot/Image
p291
sVsigned-code
p292
I00
sVvdso
p293
I01
ss(Vimage
p294
g277
tp295
(dp296
Vinstall-stem
p297
Vvmlinuz
p298
sVbreaks
p299
(lp300
Vlibmozjs185-1.0
p301
aVlibmozjs-24-0 (<< 24.2.0-5.1~)
p302
ass(Vdescription
p303
g277
NVarm64
p304
tp305
(dp306
Vhardware
p307
V64-bit ARMv8 machines
p308
ss(Vimage
p309
g277
NVarm64
p310
tp311
(dp312
s(Vbase
p313
g277
Vnone
p314
tp315
(dp316
Vflavours
p317
(lp318
Varm64
p319
ass(Vbase
p320
g277
Vrt
p321
tp322
(dp323
Vflavours
p324
(lp325
Varm64
p326
ass(Vbase
p327
Varm64ilp32
p328
tp329
(dp330
Vkernel-arch
p331
Varm64
p332
sVfeaturesets
p333
(lp334
ss(Vbase
p335
Varmel
p336
tp337
(dp338
Vkernel-arch
p339
Varm
p340
sg175
(lp341
g177
ass(Vbuild
p342
g336
tp343
(dp344
Vimage-file
p345
Varch/arm/boot/zImage
p346
sVuncompressed-image-file
p347
Varch/arm/boot/Image
p348
ss(Vimage
p349
g336
tp350
(dp351
Vinstall-stem
p352
Vvmlinuz
p353
ss(Vrelations
p354
g336
tp355
(dp356
Vheaders%gcc-8
p357
Vlinux-compiler-gcc-8-arm
p358
ss(Vdescription
p359
g336
NVmarvell
p360
tp361
(dp362
Vhardware
p363
VMarvell Kirkwood/Orion
p364
sVhardware-long
p365
VMarvell Kirkwood and Orion based systems (https://wiki.debian.org/ArmEabiPort#Supported_hardware)
p366
ss(Vdescription
p367
g336
NVrpi
p368
tp369
(dp370
Vhardware
p371
VRaspberry Pi and Pi Zero
p372
sVhardware-long
p373
VRaspberry Pi, Raspberry Pi Zero based systems
p374
ss(Vimage
p375
g336
NVmarvell
p376
tp377
(dp378
Vrecommends
p379
(lp380
Vu-boot-tools
p381
asVcheck-size
p382
I2097080
sVcheck-size-with-dtb
p383
I01
sVcheck-uncompressed-size
p384
I7340032
sVbreaks
p385
(lp386
Vflash-kernel (<< 3.57~)
p387
ass(g208
g336
g177
tp388
(dp389
g211
(lp390
Vmarvell
p391
aVrpi
p392
asg215
I01
ss(Vbase
p393
Varmhf
p394
tp395
(dp396
Vfeaturesets
p397
(lp398
Vnone
p399
aVrt
p400
asVkernel-arch
p401
Varm
p402
ss(Vbuild
p403
g394
tp404
(dp405
Vimage-file
p406
Varch/arm/boot/zImage
p407
sVvdso
p408
I01
ss(Vimage
p409
g394
tp410
(dp411
Vinstall-stem
p412
Vvmlinuz
p413
ss(Vrelations
p414
g394
tp415
(dp416
Vheaders%gcc-8
p417
Vlinux-compiler-gcc-8-arm
p418
ss(Vdescription
p419
g394
NVarmmp
p420
tp421
(dp422
Vhardware
p423
VARMv7 multiplatform compatible SoCs
p424
sVhardware-long
p425
VARMv7 multiplatform kernel. See\u000ahttps://wiki.debian.org/DebianKernel/ARMMP for details of supported\u000aplatforms
p426
ss(Vdescription
p427
g394
NVarmmp-lpae
p428
tp429
(dp430
Vhardware
p431
VARMv7 multiplatform compatible SoCs supporting LPAE
p432
sVhardware-long
p433
VARMv7 multiplatform kernel supporting LPAE. See\u000ahttps://wiki.debian.org/DebianKernel/ARMMP for details of supported\u000aplatforms.
p434
ss(Vbase
p435
g394
Vnone
p436
tp437
(dp438
Vflavours
p439
(lp440
Varmmp
p441
aVarmmp-lpae
p442
ass(Vbase
p443
g394
Vrt
p444
tp445
(dp446
Vflavours
p447
(lp448
Varmmp
p449
ass(Vbase
p450
Vhppa
p451
tp452
(dp453
Vkernel-arch
p454
Vparisc
p455
sg175
(lp456
g177
ass(Vbuild
p457
g451
tp458
(dp459
Vimage-file
p460
Varch/parisc/boot/bzImage
p461
sVdebug-info
p462
I00
ss(Vimage
p463
g451
tp464
(dp465
Vsuggests
p466
(lp467
Vpalo
p468
asVinstall-stem
p469
Vvmlinuz
p470
ss(Vdescription
p471
g451
NVparisc
p472
tp473
(dp474
Vhardware
p475
V32-bit PA-RISC
p476
sVhardware-long
p477
VHP PA-RISC 32-bit systems with max 4 GB RAM
p478
ss(Vdescription
p479
g451
NVparisc-smp
p480
tp481
(dp482
Vhardware
p483
Vmultiprocessor 32-bit PA-RISC
p484
sVhardware-long
p485
VHP PA-RISC 32-bit SMP systems with max 4 GB RAM
p486
ss(Vbase
p487
g451
NVparisc64-smp
p488
tp489
(dp490
Vcflags
p491
V-fno-cse-follow-jumps
p492
sVoverride-host-type
p493
Vhppa64-linux-gnu
p494
ss(Vdescription
p495
g451
NVparisc64-smp
p496
tp497
(dp498
Vhardware
p499
Vmultiprocessor 64-bit PA-RISC
p500
sVhardware-long
p501
VHP PA-RISC 64-bit SMP systems with support for more than 4 GB RAM
p502
ss(Vrelations
p503
g451
tp504
(dp505
Vgcc-8
p506
Vgcc-8 <!stage1 !cross !pkg.linux.nokernel>, gcc-8-hppa-linux-gnu <!stage1 cross !pkg.linux.nokernel>, binutils-hppa64-linux-gnu <!stage1 !pkg.linux.nokernel>, gcc-8-hppa64-linux-gnu <!stage1 !pkg.linux.nokernel>
p507
ss(g208
g451
g177
tp508
(dp509
g211
(lp510
Vparisc
p511
aVparisc-smp
p512
aVparisc64-smp
p513
asg215
I01
ss(Vbase
p514
Vi386
p515
tp516
(dp517
Vfeaturesets
p518
(lp519
Vnone
p520
asVkernel-arch
p521
Vx86
p522
ss(Vbuild
p523
g515
tp524
(dp525
Vimage-file
p526
Varch/x86/boot/bzImage
p527
sVsigned-code
p528
I00
sVvdso
p529
I01
ss(Vdescription
p530
g515
tp531
(dp532
Vpart-long-pae
p533
VThis kernel requires PAE (Physical Address Extension).\u000aThis feature is supported by the Intel Pentium Pro/II/III/4/4M/D, Xeon,\u000aCore and Atom; AMD Geode NX, Athlon (K7), Duron, Opteron, Sempron,\u000aTurion or Phenom; Transmeta Efficeon; VIA C7; and some other processors.
p534
ss(Vimage
p535
g515
tp536
(dp537
Vbootloaders
p538
(lp539
Vgrub-pc
p540
aVgrub-efi-ia32
p541
aVextlinux
p542
asVinstall-stem
p543
Vvmlinuz
p544
sVbreaks
p545
(lp546
Vxserver-xorg-input-vmmouse (<< 1:13.0.99)
p547
ass(Vrelations
p548
g515
tp549
(dp550
Vgcc-8
p551
Vgcc-8 (>= 8-20180123-1~) <!stage1 !cross !pkg.linux.nokernel>, gcc-8-i686-linux-gnu (>= 8-20180123-1~) <!stage1 cross !pkg.linux.nokernel>
p552
sVheaders%gcc-8
p553
Vlinux-compiler-gcc-8-x86
p554
ss(Vdescription
p555
g515
NV686
p556
tp557
(dp558
Vhardware
p559
Volder PCs
p560
sVhardware-long
p561
VPCs with one or more processors not supporting PAE
p562
ss(Vbuild
p563
g515
NV686-pae
p564
tp565
(dp566
Vdebug-info
p567
I01
ss(Vdescription
p568
g515
NV686-pae
p569
tp570
(dp571
Vhardware
p572
Vmodern PCs
p573
sVhardware-long
p574
VPCs with one or more processors supporting PAE
p575
sVparts
p576
(lp577
Vpae
p578
ass(Vbase
p579
g515
Vnone
p580
tp581
(dp582
Vflavours
p583
(lp584
V686
p585
aV686-pae
p586
ass(Vbase
p587
Via64
p588
tp589
(dp590
Vkernel-arch
p591
Via64
p592
sg175
(lp593
g177
ass(Vbuild
p594
g588
tp595
(dp596
Vimage-file
p597
Vvmlinux.gz
p598
ss(Vimage
p599
g588
tp600
(dp601
Vbootloaders
p602
(lp603
Vgrub-efi-ia64
p604
asVinstall-stem
p605
Vvmlinuz
p606
ss(Vdescription
p607
g588
NVitanium
p608
tp609
(dp610
Vhardware
p611
VItanium (Merced)
p612
sVhardware-long
p613
Vsystems with original Itanium (Merced) processors
p614
ss(Vdescription
p615
g588
NVmckinley
p616
tp617
(dp618
Vhardware
p619
VItanium 2+
p620
sVhardware-long
p621
Vsystems with Itanium 2 or 9300/9500/9700-series processors
p622
ss(g208
g588
g177
tp623
(dp624
g211
(lp625
Vitanium
p626
aVmckinley
p627
asg215
I01
ss(Vbase
p628
Vm68k
p629
tp630
(dp631
Vcflags
p632
V-ffreestanding
p633
sVkernel-arch
p634
Vm68k
p635
sg175
(lp636
g177
ass(Vbuild
p637
g629
tp638
(dp639
Vimage-file
p640
Vvmlinux
p641
ss(Vimage
p642
g629
tp643
(dp644
Vsuggests
p645
(lp646
Vvmelilo
p647
aVfdutils
p648
asVinstall-stem
p649
Vvmlinux
p650
ss(Vdescription
p651
g629
NVm68k
p652
tp653
(dp654
Vhardware
p655
VMotorola MC68020+ family
p656
ss(g208
g629
g177
tp657
(dp658
g211
(lp659
Vm68k
p660
asg215
I01
ss(Vbase
p661
Vmips
p662
tp663
(dp664
Vkernel-arch
p665
Vmips
p666
sg175
(lp667
g177
ass(Vbuild
p668
g662
tp669
(dp670
Vimage-file
p671
Vvmlinux
p672
ss(Vimage
p673
g662
tp674
(dp675
Vinstall-stem
p676
Vvmlinux
p677
ss(Vdescription
p678
g662
NV4kc-malta
p679
tp680
(dp681
Vhardware
p682
VMIPS Malta
p683
sVhardware-long
p684
VMIPS Malta boards
p685
ss(Vimage
p686
g662
NV4kc-malta
p687
tp688
(dp689
Vconfigs
p690
(lp691
Vkernelarch-mips/config.malta
p692
aVkernelarch-mips/config.mips32r2
p693
ass(Vdescription
p694
g662
NV5kc-malta
p695
tp696
(dp697
Vhardware
p698
VMIPS Malta (64-bit)
p699
sVhardware-long
p700
VMIPS Malta boards (64-bit)
p701
ss(Vimage
p702
g662
NV5kc-malta
p703
tp704
(dp705
Vconfigs
p706
(lp707
Vkernelarch-mips/config.malta
p708
aVkernelarch-mips/config.mips64r2
p709
ass(Vdescription
p710
g662
NVocteon
p711
tp712
(dp713
Vhardware
p714
VOcteon
p715
sVhardware-long
p716
VCavium Networks Octeon
p717
ss(Vimage
p718
g662
NVocteon
p719
tp720
(dp721
Vconfigs
p722
(lp723
Vkernelarch-mips/config.octeon
p724
ass(g208
g662
g177
tp725
(dp726
g211
(lp727
V4kc-malta
p728
aV5kc-malta
p729
aVocteon
p730
asg215
I01
ss(Vbase
p731
Vmips64
p732
tp733
(dp734
Vkernel-arch
p735
Vmips
p736
sg175
(lp737
g177
ass(Vbuild
p738
g732
tp739
(dp740
Vimage-file
p741
Vvmlinux
p742
ss(Vimage
p743
g732
tp744
(dp745
Vinstall-stem
p746
Vvmlinux
p747
ss(Vdescription
p748
g732
NV5kc-malta
p749
tp750
(dp751
Vhardware
p752
VMIPS Malta
p753
sVhardware-long
p754
VMIPS Malta boards
p755
ss(Vimage
p756
g732
NV5kc-malta
p757
tp758
(dp759
Vconfigs
p760
(lp761
Vkernelarch-mips/config.malta
p762
aVkernelarch-mips/config.mips64r2
p763
ass(Vdescription
p764
g732
NVocteon
p765
tp766
(dp767
Vhardware
p768
VOcteon
p769
sVhardware-long
p770
VCavium Networks Octeon
p771
ss(Vimage
p772
g732
NVocteon
p773
tp774
(dp775
Vconfigs
p776
(lp777
Vkernelarch-mips/config.octeon
p778
ass(g208
g732
g177
tp779
(dp780
g211
(lp781
V5kc-malta
p782
aVocteon
p783
asg215
I01
ss(Vbase
p784
Vmips64el
p785
tp786
(dp787
Vkernel-arch
p788
Vmips
p789
sg175
(lp790
g177
ass(Vbuild
p791
g785
tp792
(dp793
Vimage-file
p794
Vvmlinux
p795
ss(Vimage
p796
g785
tp797
(dp798
Vinstall-stem
p799
Vvmlinux
p800
ss(Vdescription
p801
g785
NV5kc-malta
p802
tp803
(dp804
Vhardware
p805
VMIPS Malta
p806
sVhardware-long
p807
VMIPS Malta boards
p808
ss(Vimage
p809
g785
NV5kc-malta
p810
tp811
(dp812
Vconfigs
p813
(lp814
Vkernelarch-mips/config.malta
p815
aVkernelarch-mips/config.mips64r2
p816
ass(Vdescription
p817
g785
NVloongson-3
p818
tp819
(dp820
Vhardware
p821
VLoongson 3A/3B
p822
sVhardware-long
p823
VLoongson 3A or 3B based systems (e.g. from Loongson or Lemote)
p824
ss(Vimage
p825
g785
NVloongson-3
p826
tp827
(dp828
Vconfigs
p829
(lp830
Vkernelarch-mips/config.loongson-3
p831
ass(Vdescription
p832
g785
NVocteon
p833
tp834
(dp835
Vhardware
p836
VOcteon
p837
sVhardware-long
p838
VCavium Networks Octeon
p839
ss(Vimage
p840
g785
NVocteon
p841
tp842
(dp843
Vconfigs
p844
(lp845
Vkernelarch-mips/config.octeon
p846
ass(g208
g785
g177
tp847
(dp848
g211
(lp849
V5kc-malta
p850
aVloongson-3
p851
aVocteon
p852
asg215
I01
ss(Vbase
p853
Vmips64r6
p854
tp855
(dp856
Vkernel-arch
p857
Vmips
p858
sg175
(lp859
g177
ass(Vbuild
p860
g854
tp861
(dp862
Vimage-file
p863
Vvmlinux
p864
ss(Vimage
p865
g854
tp866
(dp867
Vinstall-stem
p868
Vvmlinux
p869
ss(Vdescription
p870
g854
NVmips64r6
p871
tp872
(dp873
Vhardware
p874
VMIPS R6 (64 bit, big endian)
p875
sVhardware-long
p876
VMIPS R6 (64 bit, big endian)
p877
ss(Vimage
p878
g854
NVmips64r6
p879
tp880
(dp881
Vconfigs
p882
(lp883
Vkernelarch-mips/config.boston
p884
aVkernelarch-mips/config.mips64r6
p885
ass(g208
g854
g177
tp886
(dp887
g211
(lp888
Vmips64r6
p889
asg215
I01
ss(Vbase
p890
Vmips64r6el
p891
tp892
(dp893
Vkernel-arch
p894
Vmips
p895
sg175
(lp896
g177
ass(Vbuild
p897
g891
tp898
(dp899
Vimage-file
p900
Vvmlinux
p901
ss(Vimage
p902
g891
tp903
(dp904
Vinstall-stem
p905
Vvmlinux
p906
ss(Vdescription
p907
g891
NVmips64r6el
p908
tp909
(dp910
Vhardware
p911
VMIPS R6 (64 bit, little endian)
p912
sVhardware-long
p913
VMIPS R6 (64 bit, little endian)
p914
ss(Vimage
p915
g891
NVmips64r6el
p916
tp917
(dp918
Vconfigs
p919
(lp920
Vkernelarch-mips/config.boston
p921
aVkernelarch-mips/config.mips64r6
p922
ass(g208
g891
g177
tp923
(dp924
g211
(lp925
Vmips64r6el
p926
asg215
I01
ss(Vbase
p927
Vmipsel
p928
tp929
(dp930
Vkernel-arch
p931
Vmips
p932
sg175
(lp933
g177
ass(Vbuild
p934
g928
tp935
(dp936
Vimage-file
p937
Vvmlinux
p938
ss(Vimage
p939
g928
tp940
(dp941
Vinstall-stem
p942
Vvmlinux
p943
ss(Vdescription
p944
g928
NV4kc-malta
p945
tp946
(dp947
Vhardware
p948
VMIPS Malta
p949
sVhardware-long
p950
VMIPS Malta boards
p951
ss(Vimage
p952
g928
NV4kc-malta
p953
tp954
(dp955
Vconfigs
p956
(lp957
Vkernelarch-mips/config.malta
p958
aVkernelarch-mips/config.mips32r2
p959
ass(Vdescription
p960
g928
NV5kc-malta
p961
tp962
(dp963
Vhardware
p964
VMIPS Malta (64-bit)
p965
sVhardware-long
p966
VMIPS Malta boards (64-bit)
p967
ss(Vimage
p968
g928
NV5kc-malta
p969
tp970
(dp971
Vconfigs
p972
(lp973
Vkernelarch-mips/config.malta
p974
aVkernelarch-mips/config.mips64r2
p975
ass(Vdescription
p976
g928
NVloongson-3
p977
tp978
(dp979
Vhardware
p980
VLoongson 3A/3B
p981
sVhardware-long
p982
VLoongson 3A or 3B based systems (e.g. from Loongson or Lemote)
p983
ss(Vimage
p984
g928
NVloongson-3
p985
tp986
(dp987
Vconfigs
p988
(lp989
Vkernelarch-mips/config.loongson-3
p990
ass(Vdescription
p991
g928
NVocteon
p992
tp993
(dp994
Vhardware
p995
VOcteon
p996
sVhardware-long
p997
VCavium Networks Octeon
p998
ss(Vimage
p999
g928
NVocteon
p1000
tp1001
(dp1002
Vconfigs
p1003
(lp1004
Vkernelarch-mips/config.octeon
p1005
ass(g208
g928
g177
tp1006
(dp1007
g211
(lp1008
V4kc-malta
p1009
aV5kc-malta
p1010
aVloongson-3
p1011
aVocteon
p1012
asg215
I01
ss(Vbase
p1013
Vmipsn32
p1014
tp1015
(dp1016
Vkernel-arch
p1017
Vmips
p1018
sVfeaturesets
p1019
(lp1020
ss(Vbase
p1021
Vmipsn32el
p1022
tp1023
(dp1024
Vkernel-arch
p1025
Vmips
p1026
sVfeaturesets
p1027
(lp1028
ss(Vbase
p1029
Vmipsn32r6
p1030
tp1031
(dp1032
Vkernel-arch
p1033
Vmips
p1034
sVfeaturesets
p1035
(lp1036
ss(Vbase
p1037
Vmipsn32r6el
p1038
tp1039
(dp1040
Vkernel-arch
p1041
Vmips
p1042
sVfeaturesets
p1043
(lp1044
ss(Vbase
p1045
Vmipsr6
p1046
tp1047
(dp1048
Vkernel-arch
p1049
Vmips
p1050
sg175
(lp1051
g177
ass(Vbuild
p1052
g1046
tp1053
(dp1054
Vimage-file
p1055
Vvmlinux
p1056
ss(Vimage
p1057
g1046
tp1058
(dp1059
Vinstall-stem
p1060
Vvmlinux
p1061
ss(Vdescription
p1062
g1046
NVmips32r6
p1063
tp1064
(dp1065
Vhardware
p1066
VMIPS R6 (32 bit, big endian)
p1067
sVhardware-long
p1068
VMIPS R6 (32 bit, big endian)
p1069
ss(Vimage
p1070
g1046
NVmips32r6
p1071
tp1072
(dp1073
Vconfigs
p1074
(lp1075
Vkernelarch-mips/config.boston
p1076
aVkernelarch-mips/config.mips32r6
p1077
ass(Vdescription
p1078
g1046
NVmips64r6
p1079
tp1080
(dp1081
Vhardware
p1082
VMIPS R6 (64 bit, big endian)
p1083
sVhardware-long
p1084
VMIPS R6 (64 bit, big endian)
p1085
ss(Vimage
p1086
g1046
NVmips64r6
p1087
tp1088
(dp1089
Vconfigs
p1090
(lp1091
Vkernelarch-mips/config.boston
p1092
aVkernelarch-mips/config.mips64r6
p1093
ass(g208
g1046
g177
tp1094
(dp1095
g211
(lp1096
Vmips32r6
p1097
aVmips64r6
p1098
asg215
I01
ss(Vbase
p1099
Vmipsr6el
p1100
tp1101
(dp1102
Vkernel-arch
p1103
Vmips
p1104
sg175
(lp1105
g177
ass(Vbuild
p1106
g1100
tp1107
(dp1108
Vimage-file
p1109
Vvmlinux
p1110
ss(Vimage
p1111
g1100
tp1112
(dp1113
Vinstall-stem
p1114
Vvmlinux
p1115
ss(Vdescription
p1116
g1100
NVmips32r6el
p1117
tp1118
(dp1119
Vhardware
p1120
VMIPS R6 (32 bit, little endian)
p1121
sVhardware-long
p1122
VMIPS R6 (32 bit, little endian)
p1123
ss(Vimage
p1124
g1100
NVmips32r6el
p1125
tp1126
(dp1127
Vconfigs
p1128
(lp1129
Vkernelarch-mips/config.boston
p1130
aVkernelarch-mips/config.mips32r6
p1131
ass(Vdescription
p1132
g1100
NVmips64r6el
p1133
tp1134
(dp1135
Vhardware
p1136
VMIPS R6 (64 bit, little endian)
p1137
sVhardware-long
p1138
VMIPS R6 (64 bit, little endian)
p1139
ss(Vimage
p1140
g1100
NVmips64r6el
p1141
tp1142
(dp1143
Vconfigs
p1144
(lp1145
Vkernelarch-mips/config.boston
p1146
aVkernelarch-mips/config.mips64r6
p1147
ass(g208
g1100
g177
tp1148
(dp1149
g211
(lp1150
Vmips32r6el
p1151
aVmips64r6el
p1152
asg215
I01
ss(Vbase
p1153
Vpowerpc
p1154
tp1155
(dp1156
Vkernel-arch
p1157
Vpowerpc
p1158
sg175
(lp1159
g177
ass(Vbuild
p1160
g1154
tp1161
(dp1162
Vimage-file
p1163
Vvmlinux
p1164
sVvdso
p1165
I01
ss(Vimage
p1166
g1154
tp1167
(dp1168
Vconfigs
p1169
(lp1170
sVbootloaders
p1171
(lp1172
Vgrub-ieee1275
p1173
asVsuggests
p1174
(lp1175
Vmkvmlinuz
p1176
asVinstall-stem
p1177
Vvmlinux
p1178
ss(Vdescription
p1179
g1154
NVpowerpc
p1180
tp1181
(dp1182
Vhardware
p1183
Vuniprocessor 32-bit PowerPC
p1184
ss(Vdescription
p1185
g1154
NVpowerpc-smp
p1186
tp1187
(dp1188
Vhardware
p1189
Vmultiprocessor 32-bit PowerPC
p1190
ss(Vimage
p1191
g1154
NVpowerpc-smp
p1192
tp1193
(dp1194
Vconfigs
p1195
(lp1196
Vpowerpc/config.powerpc
p1197
aVpowerpc/config.powerpc-smp
p1198
ass(Vdescription
p1199
g1154
NVpowerpc64
p1200
tp1201
(dp1202
Vhardware
p1203
V64-bit PowerPC
p1204
ss(Vimage
p1205
g1154
NVpowerpc64
p1206
tp1207
(dp1208
Vconfigs
p1209
(lp1210
Vkernelarch-powerpc/config-arch-64
p1211
aVkernelarch-powerpc/config-arch-64-be
p1212
ass(g208
g1154
g177
tp1213
(dp1214
g211
(lp1215
Vpowerpc
p1216
aVpowerpc-smp
p1217
aVpowerpc64
p1218
asg215
I01
ss(Vbase
p1219
Vpowerpcspe
p1220
tp1221
(dp1222
Vkernel-arch
p1223
Vpowerpc
p1224
sg175
(lp1225
g177
ass(Vbuild
p1226
g1220
tp1227
(dp1228
Vimage-file
p1229
Vvmlinux
p1230
sVvdso
p1231
I01
ss(Vimage
p1232
g1220
tp1233
(dp1234
Vsuggests
p1235
(lp1236
Vmkvmlinuz
p1237
asVinstall-stem
p1238
Vvmlinux
p1239
ss(Vdescription
p1240
g1220
tp1241
(dp1242
Vhardware
p1243
V32-bit PowerPC with SPE (instead of AltiVec) with SMP support
p1244
ss(g208
g1220
g177
tp1245
(dp1246
g211
(lp1247
Vpowerpcspe
p1248
asg215
I01
ss(Vbase
p1249
Vppc64
p1250
tp1251
(dp1252
Vkernel-arch
p1253
Vpowerpc
p1254
sg175
(lp1255
g177
ass(Vbuild
p1256
g1250
tp1257
(dp1258
Vimage-file
p1259
Vvmlinux
p1260
sVvdso
p1261
I01
ss(Vimage
p1262
g1250
tp1263
(dp1264
Vconfigs
p1265
(lp1266
sVbootloaders
p1267
(lp1268
Vgrub-ieee1275
p1269
asVsuggests
p1270
(lp1271
Vmkvmlinuz
p1272
asVinstall-stem
p1273
Vvmlinux
p1274
ss(Vdescription
p1275
g1250
NVpowerpc64
p1276
tp1277
(dp1278
Vhardware
p1279
V64-bit PowerPC
p1280
ss(Vimage
p1281
g1250
NVpowerpc64
p1282
tp1283
(dp1284
Vconfigs
p1285
(lp1286
Vkernelarch-powerpc/config-arch-64
p1287
aVkernelarch-powerpc/config-arch-64-be
p1288
ass(g208
g1250
g177
tp1289
(dp1290
g211
(lp1291
Vpowerpc64
p1292
asg215
I01
ss(Vbase
p1293
Vppc64el
p1294
tp1295
(dp1296
Vkernel-arch
p1297
Vpowerpc
p1298
sg175
(lp1299
g177
ass(Vbuild
p1300
g1294
tp1301
(dp1302
Vimage-file
p1303
Vvmlinux
p1304
sVvdso
p1305
I01
ss(Vimage
p1306
g1294
tp1307
(dp1308
Vconfigs
p1309
(lp1310
sVbootloaders
p1311
(lp1312
Vgrub-ieee1275
p1313
asVsuggests
p1314
(lp1315
Vmkvmlinuz
p1316
asVinstall-stem
p1317
Vvmlinux
p1318
ss(Vdescription
p1319
g1294
NVpowerpc64le
p1320
tp1321
(dp1322
Vhardware
p1323
VLittle-endian 64-bit PowerPC
p1324
ss(Vimage
p1325
g1294
NVpowerpc64le
p1326
tp1327
(dp1328
Vconfigs
p1329
(lp1330
Vkernelarch-powerpc/config-arch-64
p1331
aVkernelarch-powerpc/config-arch-64-le
p1332
ass(g208
g1294
g177
tp1333
(dp1334
g211
(lp1335
Vpowerpc64le
p1336
asg215
I01
ss(Vbase
p1337
Vriscv64
p1338
tp1339
(dp1340
Vkernel-arch
p1341
Vriscv
p1342
sVfeaturesets
p1343
(lp1344
Vnone
p1345
ass(Vbuild
p1346
g1338
tp1347
(dp1348
Vimage-file
p1349
Vvmlinux
p1350
sVvdso
p1351
I01
ss(Vimage
p1352
g1338
tp1353
(dp1354
Vinstall-stem
p1355
Vvmlinux
p1356
ss(Vdescription
p1357
g1338
NVriscv64
p1358
tp1359
(dp1360
Vhardware
p1361
V64-bit RISC-V platforms
p1362
sVhardware-long
p1363
V64-bit RISC-V platforms
p1364
ss(Vbase
p1365
g1338
Vnone
p1366
tp1367
(dp1368
Vflavours
p1369
(lp1370
Vriscv64
p1371
ass(Vbase
p1372
Vs390
p1373
tp1374
(dp1375
Vkernel-arch
p1376
Vs390
p1377
sVfeaturesets
p1378
(lp1379
ss(Vbase
p1380
Vs390x
p1381
tp1382
(dp1383
Vkernel-arch
p1384
Vs390
p1385
sg175
(lp1386
g177
ass(Vbuild
p1387
g1381
tp1388
(dp1389
Vimage-file
p1390
Varch/s390/boot/bzImage
p1391
sVvdso
p1392
I01
ss(Vimage
p1393
g1381
tp1394
(dp1395
Vbootloaders
p1396
(lp1397
Vs390-tools
p1398
asVinstall-stem
p1399
Vvmlinuz
p1400
ss(Vrelations
p1401
g1381
tp1402
(dp1403
Vheaders%gcc-8
p1404
Vlinux-compiler-gcc-8-s390
p1405
ss(Vbuild
p1406
g1381
NVs390x
p1407
tp1408
(dp1409
Vdebug-info
p1410
I01
ss(Vdescription
p1411
g1381
NVs390x
p1412
tp1413
(dp1414
Vhardware
p1415
VIBM zSeries
p1416
ss(g208
g1381
g177
tp1417
(dp1418
g211
(lp1419
Vs390x
p1420
asg215
I01
ss(Vbase
p1421
Vsh3
p1422
tp1423
(dp1424
Vkernel-arch
p1425
Vsh
p1426
sVfeaturesets
p1427
(lp1428
ss(Vbase
p1429
Vsh4
p1430
tp1431
(dp1432
Vkernel-arch
p1433
Vsh
p1434
sg175
(lp1435
g177
ass(Vbuild
p1436
g1430
tp1437
(dp1438
Vimage-file
p1439
Varch/sh/boot/zImage
p1440
ss(Vimage
p1441
g1430
tp1442
(dp1443
Vinstall-stem
p1444
Vvmlinuz
p1445
ss(Vdescription
p1446
g1430
NVsh7751r
p1447
tp1448
(dp1449
Vhardware
p1450
Vsh7751r
p1451
sVhardware-long
p1452
VRenesas SH7751R R2D plus board
p1453
ss(Vdescription
p1454
g1430
NVsh7785lcr
p1455
tp1456
(dp1457
Vhardware
p1458
Vsh7785lcr
p1459
sVhardware-long
p1460
VRenesas SH7785 reference board
p1461
ss(Vimage
p1462
g1430
NVsh7785lcr
p1463
tp1464
(dp1465
Vrecommends
p1466
(lp1467
Vu-boot-tools
p1468
asVcheck-size
p1469
I4194304
ss(g208
g1430
g177
tp1470
(dp1471
g211
(lp1472
Vsh7751r
p1473
aVsh7785lcr
p1474
asg215
I01
ss(Vbase
p1475
Vsparc
p1476
tp1477
(dp1478
Vkernel-arch
p1479
Vsparc
p1480
sVfeaturesets
p1481
(lp1482
ss(Vbase
p1483
Vsparc64
p1484
tp1485
(dp1486
Vkernel-arch
p1487
Vsparc
p1488
sg175
(lp1489
g177
ass(Vbuild
p1490
g1484
tp1491
(dp1492
Vimage-file
p1493
Vvmlinux
p1494
ss(Vimage
p1495
g1484
tp1496
(dp1497
Vconfigs
p1498
(lp1499
sVbootloaders
p1500
(lp1501
Vgrub-ieee1275
p1502
asVsuggests
p1503
(lp1504
Vfdutils
p1505
asVinstall-stem
p1506
Vvmlinux
p1507
ss(Vdescription
p1508
g1484
NVsparc64
p1509
tp1510
(dp1511
Vhardware
p1512
Vuniprocessor 64-bit UltraSPARC
p1513
ss(Vimage
p1514
g1484
NVsparc64
p1515
tp1516
(dp1517
Vconfigs
p1518
(lp1519
Vkernelarch-sparc/config-up
p1520
ass(Vdescription
p1521
g1484
NVsparc64-smp
p1522
tp1523
(dp1524
Vhardware
p1525
Vmultiprocessor 64-bit UltraSPARC
p1526
ss(Vimage
p1527
g1484
NVsparc64-smp
p1528
tp1529
(dp1530
Vconfigs
p1531
(lp1532
Vkernelarch-sparc/config-smp
p1533
ass(g208
g1484
g177
tp1534
(dp1535
g211
(lp1536
Vsparc64
p1537
aVsparc64-smp
p1538
asg215
I01
ss(Vbase
p1539
Vx32
p1540
tp1541
(dp1542
Vkernel-arch
p1543
Vx86
p1544
sVfeaturesets
p1545
(lp1546
ss(Vabi
p1547
NVrt
p1548
tp1549
(dp1550
Vignore-changes
p1551
(lp1552
V*
p1553
ass(Vdescription
p1554
Ng1548
tp1555
(dp1556
Vpart-long-rt
p1557
VThis kernel includes the PREEMPT_RT realtime patch set.
p1558
sVpart-short-rt
p1559
VPREEMPT_RT
p1560
sVparts
p1561
(lp1562
Vrt
p1563
ass(Vversion
p1564
tp1565
(dp1566
Vsource
p1567
V4.19.67-2co1
p1568
sVupstream
p1569
V4.19
p1570
sVabiname_base
p1571
V4.19.0
p1572
sVabiname
p1573
V4.19.0-6co1
p1574
ss.