cdebian_linux.config
ConfigCore
p0
(tRp1
(Vpackages
p2
tp3
(dp4
Vinstaller
p5
I00
ss(Vabi
p6
tp7
(dp8
Vabiname
p9
V7
p10
sVignore-changes
p11
(lp12
V__cpuhp_*
p13
aV__udp_gso_segment
p14
aVbpf_analyzer
p15
aVcxl_*
p16
aVdax_flush
p17
aVieee80211_nullfunc_get
p18
aVinet_add_protocol
p19
aVinet_del_protocol
p20
aViommu_device_*
p21
aVmm_iommu_*
p22
aVmv_mbus_*
p23
aVperf_*
p24
aVregister_cxl_calls
p25
aVregister_key_type
p26
aVunregister_cxl_calls
p27
aV*_hw_breakpoint
p28
aVmodule:drivers/crypto/ccp/*
p29
aVmodule:drivers/hv/*
p30
aVmodule:drivers/gpu/drm/sun4i/*
p31
aVmodule:drivers/iio/**
p32
aVmodule:drivers/misc/cxl/*
p33
aVmodule:drivers/mtd/nand/*
p34
aVmodule:drivers/net/ethernet/**
p35
aVmodule:drivers/net/wireless/**
p36
aVmodule:drivers/nvdimm/*
p37
aVmodule:drivers/nvme/**
p38
aVmodule:drivers/power/supply/bq27xxx_battery
p39
aVmodule:drivers/scsi/cxgbi/*
p40
aVmodule:drivers/scsi/libiscs*
p41
aVmodule:drivers/scsi/qla2xxx/qla2xxx
p42
aVmodule:drivers/scsi/ufs/*
p43
aVmodule:drivers/target/**
p44
aVmodule:drivers/usb/chipidea/**
p45
aVmodule:drivers/usb/gadget/**
p46
aVmodule:drivers/usb/host/**
p47
aVmodule:drivers/usb/musb/**
p48
aVmodule:fs/nfs/**
p49
aVmodule:net/ceph/libceph
p50
aVmodule:net/l2tp/**
p51
aVmodule:net/rxrpc/rxrpc
p52
aVmodule:net/sctp/**
p53
aVmodule:sound/core/seq/**
p54
aVmodule:sound/firewire/snd-firewire-lib
p55
aVmodule:sound/pci/hda/*
p56
aVbtree_*
p57
aVvisitor*
p58
aVcan_rx_register
p59
aVip6_xmit
p60
aVmodule:net/dccp/dccp
p61
aVmodule:net/rds/rds
p62
aVdevfreq_*
p63
aVdevm_devfreq_*
p64
aVupdate_devfreq
p65
aVmodule:drivers/infiniband/**
p66
aVacpi_ec_add_query_handler
p67
aVacpi_ec_remove_query_handler
p68
aVfirst_ec
p69
aVdebugfs_create_automount
p70
aVmodule:drivers/iio/imu/inv_mpu6050/*
p71
aVdrm_crtc_accurate_vblank_count
p72
aVacpi_nfit_desc_init
p73
aVacpi_nfit_init
p74
aVloop_register_transfer
p75
aVxen_xlate_*
p76
aVnf_nat_masquerade_ipv4_register_notifier
p77
aVnf_nat_masquerade_ipv6_register_notifier
p78
aVdfltcc_*
p79
aVmodule:drivers/scsi/hisi_sas/*
p80
aV__gfn_*
p81
aV__kvmhv_*
p82
aV__kvm_*
p83
aV__xive_vm_h_*
p84
aVgfn_*
p85
aVh_ipi_redirect
p86
aVhalt_poll_ns*
p87
aVkvm_*
p88
aVkvmhv_*
p89
aVkvmppc_*
p90
aVmark_page_dirty
p91
aVvcpu_*
p92
aVmodule:arch/powerpc/kvm/*
p93
aVmodule:arch/s390/kvm/*
p94
aVmodule:arch/x86/kvm/*
p95
aVuv_info
p96
aVxhci_init_driver
p97
ass(Vbase
p98
tp99
(dp100
Varches
p101
(lp102
Valpha
p103
aVamd64
p104
aVarm64
p105
aVarm64ilp32
p106
aVarmel
p107
aVarmhf
p108
aVhppa
p109
aVi386
p110
aVia64
p111
aVm68k
p112
aVmips
p113
aVmips64
p114
aVmips64el
p115
aVmips64r6
p116
aVmips64r6el
p117
aVmipsel
p118
aVmipsn32
p119
aVmipsn32el
p120
aVmipsn32r6
p121
aVmipsn32r6el
p122
aVmipsr6
p123
aVmipsr6el
p124
aVpowerpc
p125
aVppc64
p126
aVppc64el
p127
aVriscv64
p128
aVs390
p129
aVs390x
p130
aVsh3
p131
aVsh4
p132
aVsparc
p133
aVsparc64
p134
aVx32
p135
asVcompiler
p136
Vgcc-8
p137
sVfeaturesets
p138
(lp139
Vnone
p140
aVrt
p141
ass(Vbuild
p142
tp143
(dp144
Vdebug-info
p145
I01
sVsigned-code
p146
I00
ss(Vbase
p147
NVrt
p148
tp149
(dp150
Venabled
p151
I01
ss(Vdescription
p152
tp153
(dp154
Vpart-long-up
p155
VThis kernel is not suitable for SMP (multi-processor,\u000amulti-core or hyper-threaded) systems.
p156
ss(Vimage
p157
tp158
(dp159
Vinitramfs-generators
p160
(lp161
Vinitramfs-tools
p162
aVinitramfs-fallback
p163
asVbreaks
p164
(lp165
Vfwupdate (<< 12-7)
p166
aVwireless-regdb (<< 2019.06.03-1~)
p167
asVrecommends
p168
(lp169
Vapparmor
p170
ass(Vrelations
p171
tp172
(dp173
Vgcc-8
p174
Vgcc-8 <!stage1 !cross !pkg.linux.nokernel>, gcc-8-@gnu-type-package@ <!stage1 cross !pkg.linux.nokernel>
p175
sVinitramfs-fallback
p176
Vlinux-initramfs-tool
p177
sVinitramfs-tools
p178
Vinitramfs-tools (>= 0.120+deb8u2)
p179
ss(Vbase
p180
Valpha
p181
tp182
(dp183
Vdefault-flavour
p184
Valpha-smp
p185
sVkernel-arch
p186
Valpha
p187
sVfeaturesets
p188
(lp189
Vnone
p190
ass(Vbuild
p191
g181
tp192
(dp193
Vimage-file
p194
Varch/alpha/boot/vmlinux.gz
p195
ss(Vimage
p196
g181
tp197
(dp198
Vsuggests
p199
(lp200
Vaboot
p201
aVfdutils
p202
asVinstall-stem
p203
Vvmlinuz
p204
ss(Vdescription
p205
g181
NValpha-generic
p206
tp207
(dp208
Vhardware
p209
VAlpha
p210
sVhardware-long
p211
VDEC Alpha systems with extended kernel start address (Wildfire, Titan, Marvel)
p212
ss(Vdescription
p213
g181
NValpha-smp
p214
tp215
(dp216
Vhardware
p217
VAlpha SMP
p218
sVhardware-long
p219
VDEC Alpha SMP systems with extended kernel start address (Wildfire, Titan, Marvel)
p220
ss(Vbase
p221
g181
g190
tp222
(dp223
Vflavours
p224
(lp225
Valpha-generic
p226
aValpha-smp
p227
asVimplicit-flavour
p228
I01
ss(Vbase
p229
Vamd64
p230
tp231
(dp232
Vfeaturesets
p233
(lp234
Vnone
p235
asVkernel-arch
p236
Vx86
p237
ss(Vbuild
p238
g230
tp239
(dp240
Vimage-file
p241
Varch/x86/boot/bzImage
p242
sVsigned-code
p243
I00
sVvdso
p244
I01
ss(Vimage
p245
g230
tp246
(dp247
Vbootloaders
p248
(lp249
Vgrub-pc
p250
aVgrub-efi-amd64
p251
aVextlinux
p252
asVinstall-stem
p253
Vvmlinuz
p254
sVbreaks
p255
(lp256
Vxserver-xorg-input-vmmouse (<< 1:13.0.99)
p257
ass(Vrelations
p258
g230
tp259
(dp260
Vheaders%gcc-8
p261
Vlinux-compiler-gcc-8-x86
p262
ss(Vdescription
p263
g230
NVamd64
p264
tp265
(dp266
Vhardware
p267
V64-bit PCs
p268
sVhardware-long
p269
VPCs with AMD64, Intel 64 or VIA Nano processors
p270
ss(Vdescription
p271
g230
NVcloud-amd64
p272
tp273
(dp274
Vhardware
p275
Vx86-64 cloud
p276
sVhardware-long
p277
Vcloud platforms including Amazon EC2, Microsoft Azure, and Google Compute Engine
p278
ss(Vbase
p279
g230
Vnone
p280
tp281
(dp282
Vflavours
p283
(lp284
Vamd64
p285
asVdefault-flavour
p286
Vamd64
p287
ss(Vimage
p288
g230
g280
Vcloud-amd64
p289
tp290
(dp291
Vconfigs
p292
(lp293
Vconfig.cloud
p294
aVamd64/config.cloud-amd64
p295
ass(Vbase
p296
Varm64
p297
tp298
(dp299
Vcross-compile-compat
p300
Varm-linux-gnueabihf-
p301
sVkernel-arch
p302
Varm64
p303
sVfeaturesets
p304
(lp305
Vnone
p306
ass(Vbuild
p307
g297
tp308
(dp309
Vimage-file
p310
Varch/arm64/boot/Image
p311
sVsigned-code
p312
I00
sVvdso
p313
I01
ss(Vimage
p314
g297
tp315
(dp316
Vinstall-stem
p317
Vvmlinuz
p318
sVbreaks
p319
(lp320
Vlibmozjs185-1.0
p321
aVlibmozjs-24-0 (<< 24.2.0-5.1~)
p322
ass(Vdescription
p323
g297
NVarm64
p324
tp325
(dp326
Vhardware
p327
V64-bit ARMv8 machines
p328
ss(Vdescription
p329
g297
NVcloud-arm64
p330
tp331
(dp332
Vhardware
p333
Varm64 cloud
p334
sVhardware-long
p335
Vcloud platforms supporting arm64 virtual machines
p336
ss(Vimage
p337
g297
NVarm64
p338
tp339
(dp340
s(Vrelations
p341
g297
tp342
(dp343
Vgcc-8
p344
Vgcc-8 <!stage1 !cross !pkg.linux.nokernel>, gcc-8-aarch64-linux-gnu <!stage1 cross !pkg.linux.nokernel>, gcc-arm-linux-gnueabihf <!stage1 !pkg.linux.nokernel>
p345
sVheaders%gcc-8
p346
Vgcc-8
p347
ss(Vbase
p348
g297
Vnone
p349
tp350
(dp351
Vflavours
p352
(lp353
Varm64
p354
asVdefault-flavour
p355
Varm64
p356
ss(Vimage
p357
g297
g349
Vcloud-arm64
p358
tp359
(dp360
Vconfigs
p361
(lp362
Vconfig.cloud
p363
aVarm64/config.cloud-arm64
p364
ass(Vbase
p365
Varm64ilp32
p366
tp367
(dp368
Vkernel-arch
p369
Varm64
p370
sVfeaturesets
p371
(lp372
ss(Vbase
p373
Varmel
p374
tp375
(dp376
Vkernel-arch
p377
Varm
p378
sg188
(lp379
g190
ass(Vbuild
p380
g374
tp381
(dp382
Vimage-file
p383
Varch/arm/boot/zImage
p384
sVuncompressed-image-file
p385
Varch/arm/boot/Image
p386
ss(Vimage
p387
g374
tp388
(dp389
Vinstall-stem
p390
Vvmlinuz
p391
ss(Vrelations
p392
g374
tp393
(dp394
Vheaders%gcc-8
p395
Vlinux-compiler-gcc-8-arm
p396
ss(Vdescription
p397
g374
NVmarvell
p398
tp399
(dp400
Vhardware
p401
VMarvell Kirkwood/Orion
p402
sVhardware-long
p403
VMarvell Kirkwood and Orion based systems (https://wiki.debian.org/ArmEabiPort#Supported_hardware)
p404
ss(Vdescription
p405
g374
NVrpi
p406
tp407
(dp408
Vhardware
p409
VRaspberry Pi and Pi Zero
p410
sVhardware-long
p411
VRaspberry Pi, Raspberry Pi Zero based systems
p412
ss(Vimage
p413
g374
NVmarvell
p414
tp415
(dp416
Vrecommends
p417
(lp418
Vu-boot-tools
p419
asVcheck-size
p420
I2729712
sVcheck-size-with-dtb
p421
I01
sVbreaks
p422
(lp423
Vflash-kernel (<< 3.57~)
p424
ass(g221
g374
g190
tp425
(dp426
g224
(lp427
Vmarvell
p428
aVrpi
p429
asg228
I01
ss(Vbase
p430
Varmhf
p431
tp432
(dp433
Vfeaturesets
p434
(lp435
Vnone
p436
asVkernel-arch
p437
Varm
p438
ss(Vbuild
p439
g431
tp440
(dp441
Vimage-file
p442
Varch/arm/boot/zImage
p443
sVvdso
p444
I01
ss(Vimage
p445
g431
tp446
(dp447
Vinstall-stem
p448
Vvmlinuz
p449
ss(Vrelations
p450
g431
tp451
(dp452
Vheaders%gcc-8
p453
Vlinux-compiler-gcc-8-arm
p454
ss(Vdescription
p455
g431
NVarmmp
p456
tp457
(dp458
Vhardware
p459
VARMv7 multiplatform compatible SoCs
p460
sVhardware-long
p461
VARMv7 multiplatform kernel. See\u000ahttps://wiki.debian.org/DebianKernel/ARMMP for details of supported\u000aplatforms
p462
ss(Vdescription
p463
g431
NVarmmp-lpae
p464
tp465
(dp466
Vhardware
p467
VARMv7 multiplatform compatible SoCs supporting LPAE
p468
sVhardware-long
p469
VARMv7 multiplatform kernel supporting LPAE. See\u000ahttps://wiki.debian.org/DebianKernel/ARMMP for details of supported\u000aplatforms.
p470
ss(Vbase
p471
g431
Vnone
p472
tp473
(dp474
Vflavours
p475
(lp476
Varmmp
p477
aVarmmp-lpae
p478
asVdefault-flavour
p479
Varmmp
p480
ss(Vbase
p481
Vhppa
p482
tp483
(dp484
Vdefault-flavour
p485
Vparisc
p486
sVkernel-arch
p487
Vparisc
p488
sg188
(lp489
g190
ass(Vbuild
p490
g482
tp491
(dp492
Vimage-file
p493
Varch/parisc/boot/bzImage
p494
sVdebug-info
p495
I00
ss(Vimage
p496
g482
tp497
(dp498
Vsuggests
p499
(lp500
Vpalo
p501
asVinstall-stem
p502
Vvmlinuz
p503
ss(Vdescription
p504
g482
NVparisc
p505
tp506
(dp507
Vhardware
p508
V32-bit PA-RISC
p509
sVhardware-long
p510
VHP PA-RISC 32-bit systems with max 4 GB RAM
p511
ss(Vbase
p512
g482
NVparisc64
p513
tp514
(dp515
Vcflags
p516
V-fno-cse-follow-jumps
p517
sVoverride-host-type
p518
Vhppa64-linux-gnu
p519
ss(Vdescription
p520
g482
NVparisc64
p521
tp522
(dp523
Vhardware
p524
V64-bit PA-RISC
p525
sVhardware-long
p526
VHP PA-RISC 64-bit systems with support for more than 4 GB RAM
p527
ss(Vrelations
p528
g482
tp529
(dp530
Vgcc-8
p531
Vgcc-8 <!stage1 !cross !pkg.linux.nokernel>, gcc-8-hppa-linux-gnu <!stage1 cross !pkg.linux.nokernel>, binutils-hppa64-linux-gnu <!stage1 !pkg.linux.nokernel>, gcc-8-hppa64-linux-gnu <!stage1 !pkg.linux.nokernel>
p532
ss(g221
g482
g190
tp533
(dp534
g224
(lp535
Vparisc
p536
aVparisc64
p537
asg228
I01
ss(Vbase
p538
Vi386
p539
tp540
(dp541
Vfeaturesets
p542
(lp543
Vnone
p544
asVkernel-arch
p545
Vx86
p546
ss(Vbuild
p547
g539
tp548
(dp549
Vimage-file
p550
Varch/x86/boot/bzImage
p551
sVsigned-code
p552
I00
sVvdso
p553
I01
ss(Vdescription
p554
g539
tp555
(dp556
Vpart-long-pae
p557
VThis kernel requires PAE (Physical Address Extension).\u000aThis feature is supported by the Intel Pentium Pro/II/III/4/4M/D, Xeon,\u000aCore and Atom; AMD Geode NX, Athlon (K7), Duron, Opteron, Sempron,\u000aTurion or Phenom; Transmeta Efficeon; VIA C7; and some other processors.
p558
ss(Vimage
p559
g539
tp560
(dp561
Vbootloaders
p562
(lp563
Vgrub-pc
p564
aVgrub-efi-ia32
p565
aVextlinux
p566
asVinstall-stem
p567
Vvmlinuz
p568
sVbreaks
p569
(lp570
Vxserver-xorg-input-vmmouse (<< 1:13.0.99)
p571
ass(Vrelations
p572
g539
tp573
(dp574
Vheaders%gcc-8
p575
Vlinux-compiler-gcc-8-x86
p576
ss(Vdescription
p577
g539
NV686
p578
tp579
(dp580
Vhardware
p581
Volder PCs
p582
sVhardware-long
p583
VPCs with one or more processors not supporting PAE
p584
ss(Vdescription
p585
g539
NV686-pae
p586
tp587
(dp588
Vhardware
p589
Vmodern PCs
p590
sVhardware-long
p591
VPCs with one or more processors supporting PAE
p592
sVparts
p593
(lp594
Vpae
p595
ass(Vbase
p596
g539
Vnone
p597
tp598
(dp599
Vflavours
p600
(lp601
V686
p602
aV686-pae
p603
asVdefault-flavour
p604
V686-pae
p605
ss(Vbase
p606
Via64
p607
tp608
(dp609
Vdefault-flavour
p610
Vitanium
p611
sVkernel-arch
p612
Via64
p613
sg188
(lp614
g190
ass(Vbuild
p615
g607
tp616
(dp617
Vimage-file
p618
Vvmlinux.gz
p619
ss(Vimage
p620
g607
tp621
(dp622
Vbootloaders
p623
(lp624
Vgrub-efi-ia64
p625
asVinstall-stem
p626
Vvmlinuz
p627
ss(Vdescription
p628
g607
NVitanium
p629
tp630
(dp631
Vhardware
p632
VItanium (Merced)
p633
sVhardware-long
p634
Vsystems with original Itanium (Merced) processors
p635
ss(Vdescription
p636
g607
NVmckinley
p637
tp638
(dp639
Vhardware
p640
VItanium 2+
p641
sVhardware-long
p642
Vsystems with Itanium 2 or 9300/9500/9700-series processors
p643
ss(g221
g607
g190
tp644
(dp645
g224
(lp646
Vitanium
p647
aVmckinley
p648
asg228
I01
ss(Vbase
p649
Vm68k
p650
tp651
(dp652
Vcflags
p653
V-ffreestanding
p654
sVdefault-flavour
p655
Vm68k
p656
sVkernel-arch
p657
Vm68k
p658
sg188
(lp659
g190
ass(Vbuild
p660
g650
tp661
(dp662
Vimage-file
p663
Vvmlinux
p664
ss(Vimage
p665
g650
tp666
(dp667
Vsuggests
p668
(lp669
Vvmelilo
p670
aVfdutils
p671
asVinstall-stem
p672
Vvmlinux
p673
ss(Vdescription
p674
g650
NVm68k
p675
tp676
(dp677
Vhardware
p678
VMotorola MC68020+ family
p679
ss(g221
g650
g190
tp680
(dp681
g224
(lp682
Vm68k
p683
asg228
I01
ss(Vbase
p684
Vmips
p685
tp686
(dp687
Vkernel-arch
p688
Vmips
p689
sg188
(lp690
g190
ass(Vbuild
p691
g685
tp692
(dp693
Vimage-file
p694
Vvmlinuz
p695
ss(Vimage
p696
g685
tp697
(dp698
Vinstall-stem
p699
Vvmlinuz
p700
ss(Vdescription
p701
g685
NV4kc-malta
p702
tp703
(dp704
Vhardware
p705
VMIPS Malta
p706
sVhardware-long
p707
VMIPS Malta boards
p708
ss(Vimage
p709
g685
NV4kc-malta
p710
tp711
(dp712
Vconfigs
p713
(lp714
Vkernelarch-mips/config.malta
p715
aVkernelarch-mips/config.mips32r2
p716
ass(Vdescription
p717
g685
NV5kc-malta
p718
tp719
(dp720
Vhardware
p721
VMIPS Malta (64-bit)
p722
sVhardware-long
p723
VMIPS Malta boards (64-bit)
p724
ss(Vimage
p725
g685
NV5kc-malta
p726
tp727
(dp728
Vconfigs
p729
(lp730
Vkernelarch-mips/config.malta
p731
aVkernelarch-mips/config.mips64r2
p732
ass(Vdescription
p733
g685
NVocteon
p734
tp735
(dp736
Vhardware
p737
VOcteon
p738
sVhardware-long
p739
VCavium Networks Octeon
p740
ss(Vbuild
p741
g685
NVocteon
p742
tp743
(dp744
Vimage-file
p745
Vvmlinux
p746
ss(Vimage
p747
g685
NVocteon
p748
tp749
(dp750
Vinstall-stem
p751
Vvmlinux
p752
sVconfigs
p753
(lp754
Vkernelarch-mips/config.octeon
p755
ass(g221
g685
g190
tp756
(dp757
g224
(lp758
V4kc-malta
p759
aV5kc-malta
p760
aVocteon
p761
asg228
I01
ss(Vbase
p762
Vmips64
p763
tp764
(dp765
Vkernel-arch
p766
Vmips
p767
sg188
(lp768
g190
ass(Vbuild
p769
g763
tp770
(dp771
Vimage-file
p772
Vvmlinuz
p773
ss(Vimage
p774
g763
tp775
(dp776
Vinstall-stem
p777
Vvmlinuz
p778
ss(Vdescription
p779
g763
NV5kc-malta
p780
tp781
(dp782
Vhardware
p783
VMIPS Malta
p784
sVhardware-long
p785
VMIPS Malta boards
p786
ss(Vimage
p787
g763
NV5kc-malta
p788
tp789
(dp790
Vconfigs
p791
(lp792
Vkernelarch-mips/config.malta
p793
aVkernelarch-mips/config.mips64r2
p794
ass(Vdescription
p795
g763
NVocteon
p796
tp797
(dp798
Vhardware
p799
VOcteon
p800
sVhardware-long
p801
VCavium Networks Octeon
p802
ss(Vbuild
p803
g763
NVocteon
p804
tp805
(dp806
Vimage-file
p807
Vvmlinux
p808
ss(Vimage
p809
g763
NVocteon
p810
tp811
(dp812
Vinstall-stem
p813
Vvmlinux
p814
sVconfigs
p815
(lp816
Vkernelarch-mips/config.octeon
p817
ass(g221
g763
g190
tp818
(dp819
g224
(lp820
V5kc-malta
p821
aVocteon
p822
asg228
I01
ss(Vbase
p823
Vmips64el
p824
tp825
(dp826
Vkernel-arch
p827
Vmips
p828
sg188
(lp829
g190
ass(Vbuild
p830
g824
tp831
(dp832
Vimage-file
p833
Vvmlinuz
p834
ss(Vimage
p835
g824
tp836
(dp837
Vinstall-stem
p838
Vvmlinuz
p839
ss(Vdescription
p840
g824
NV5kc-malta
p841
tp842
(dp843
Vhardware
p844
VMIPS Malta
p845
sVhardware-long
p846
VMIPS Malta boards
p847
ss(Vimage
p848
g824
NV5kc-malta
p849
tp850
(dp851
Vconfigs
p852
(lp853
Vkernelarch-mips/config.malta
p854
aVkernelarch-mips/config.mips64r2
p855
ass(Vdescription
p856
g824
NVloongson-3
p857
tp858
(dp859
Vhardware
p860
VLoongson 3A/3B
p861
sVhardware-long
p862
VLoongson 3A or 3B based systems (e.g. from Loongson or Lemote)
p863
ss(Vimage
p864
g824
NVloongson-3
p865
tp866
(dp867
Vconfigs
p868
(lp869
Vkernelarch-mips/config.loongson-3
p870
ass(Vdescription
p871
g824
NVocteon
p872
tp873
(dp874
Vhardware
p875
VOcteon
p876
sVhardware-long
p877
VCavium Networks Octeon
p878
ss(Vbuild
p879
g824
NVocteon
p880
tp881
(dp882
Vimage-file
p883
Vvmlinux
p884
ss(Vimage
p885
g824
NVocteon
p886
tp887
(dp888
Vinstall-stem
p889
Vvmlinux
p890
sVconfigs
p891
(lp892
Vkernelarch-mips/config.octeon
p893
ass(g221
g824
g190
tp894
(dp895
g224
(lp896
V5kc-malta
p897
aVloongson-3
p898
aVocteon
p899
asg228
I01
ss(Vbase
p900
Vmips64r6
p901
tp902
(dp903
Vdefault-flavour
p904
Vmips64r6
p905
sVkernel-arch
p906
Vmips
p907
sg188
(lp908
g190
ass(Vbuild
p909
g901
tp910
(dp911
Vimage-file
p912
Vvmlinux
p913
ss(Vimage
p914
g901
tp915
(dp916
Vinstall-stem
p917
Vvmlinux
p918
ss(Vdescription
p919
g901
NVmips64r6
p920
tp921
(dp922
Vhardware
p923
VMIPS R6 (64 bit, big endian)
p924
sVhardware-long
p925
VMIPS R6 (64 bit, big endian)
p926
ss(Vimage
p927
g901
NVmips64r6
p928
tp929
(dp930
Vconfigs
p931
(lp932
Vkernelarch-mips/config.boston
p933
aVkernelarch-mips/config.mips64r6
p934
ass(g221
g901
g190
tp935
(dp936
g224
(lp937
Vmips64r6
p938
asg228
I01
ss(Vbase
p939
Vmips64r6el
p940
tp941
(dp942
Vdefault-flavour
p943
Vmips64r6el
p944
sVkernel-arch
p945
Vmips
p946
sg188
(lp947
g190
ass(Vbuild
p948
g940
tp949
(dp950
Vimage-file
p951
Vvmlinux
p952
ss(Vimage
p953
g940
tp954
(dp955
Vinstall-stem
p956
Vvmlinux
p957
ss(Vdescription
p958
g940
NVmips64r6el
p959
tp960
(dp961
Vhardware
p962
VMIPS R6 (64 bit, little endian)
p963
sVhardware-long
p964
VMIPS R6 (64 bit, little endian)
p965
ss(Vimage
p966
g940
NVmips64r6el
p967
tp968
(dp969
Vconfigs
p970
(lp971
Vkernelarch-mips/config.boston
p972
aVkernelarch-mips/config.mips64r6
p973
ass(g221
g940
g190
tp974
(dp975
g224
(lp976
Vmips64r6el
p977
asg228
I01
ss(Vbase
p978
Vmipsel
p979
tp980
(dp981
Vkernel-arch
p982
Vmips
p983
sg188
(lp984
g190
ass(Vbuild
p985
g979
tp986
(dp987
Vimage-file
p988
Vvmlinuz
p989
ss(Vimage
p990
g979
tp991
(dp992
Vinstall-stem
p993
Vvmlinuz
p994
ss(Vdescription
p995
g979
NV4kc-malta
p996
tp997
(dp998
Vhardware
p999
VMIPS Malta
p1000
sVhardware-long
p1001
VMIPS Malta boards
p1002
ss(Vimage
p1003
g979
NV4kc-malta
p1004
tp1005
(dp1006
Vconfigs
p1007
(lp1008
Vkernelarch-mips/config.malta
p1009
aVkernelarch-mips/config.mips32r2
p1010
ass(Vdescription
p1011
g979
NV5kc-malta
p1012
tp1013
(dp1014
Vhardware
p1015
VMIPS Malta (64-bit)
p1016
sVhardware-long
p1017
VMIPS Malta boards (64-bit)
p1018
ss(Vimage
p1019
g979
NV5kc-malta
p1020
tp1021
(dp1022
Vconfigs
p1023
(lp1024
Vkernelarch-mips/config.malta
p1025
aVkernelarch-mips/config.mips64r2
p1026
ass(Vdescription
p1027
g979
NVloongson-3
p1028
tp1029
(dp1030
Vhardware
p1031
VLoongson 3A/3B
p1032
sVhardware-long
p1033
VLoongson 3A or 3B based systems (e.g. from Loongson or Lemote)
p1034
ss(Vimage
p1035
g979
NVloongson-3
p1036
tp1037
(dp1038
Vconfigs
p1039
(lp1040
Vkernelarch-mips/config.loongson-3
p1041
ass(Vdescription
p1042
g979
NVocteon
p1043
tp1044
(dp1045
Vhardware
p1046
VOcteon
p1047
sVhardware-long
p1048
VCavium Networks Octeon
p1049
ss(Vbuild
p1050
g979
NVocteon
p1051
tp1052
(dp1053
Vimage-file
p1054
Vvmlinux
p1055
ss(Vimage
p1056
g979
NVocteon
p1057
tp1058
(dp1059
Vinstall-stem
p1060
Vvmlinux
p1061
sVconfigs
p1062
(lp1063
Vkernelarch-mips/config.octeon
p1064
ass(g221
g979
g190
tp1065
(dp1066
g224
(lp1067
V4kc-malta
p1068
aV5kc-malta
p1069
aVloongson-3
p1070
aVocteon
p1071
asg228
I01
ss(Vbase
p1072
Vmipsn32
p1073
tp1074
(dp1075
Vkernel-arch
p1076
Vmips
p1077
sVfeaturesets
p1078
(lp1079
ss(Vbase
p1080
Vmipsn32el
p1081
tp1082
(dp1083
Vkernel-arch
p1084
Vmips
p1085
sVfeaturesets
p1086
(lp1087
ss(Vbase
p1088
Vmipsn32r6
p1089
tp1090
(dp1091
Vkernel-arch
p1092
Vmips
p1093
sVfeaturesets
p1094
(lp1095
ss(Vbase
p1096
Vmipsn32r6el
p1097
tp1098
(dp1099
Vkernel-arch
p1100
Vmips
p1101
sVfeaturesets
p1102
(lp1103
ss(Vbase
p1104
Vmipsr6
p1105
tp1106
(dp1107
Vdefault-flavour
p1108
Vmips32r6
p1109
sVkernel-arch
p1110
Vmips
p1111
sg188
(lp1112
g190
ass(Vbuild
p1113
g1105
tp1114
(dp1115
Vimage-file
p1116
Vvmlinux
p1117
ss(Vimage
p1118
g1105
tp1119
(dp1120
Vinstall-stem
p1121
Vvmlinux
p1122
ss(Vdescription
p1123
g1105
NVmips32r6
p1124
tp1125
(dp1126
Vhardware
p1127
VMIPS R6 (32 bit, big endian)
p1128
sVhardware-long
p1129
VMIPS R6 (32 bit, big endian)
p1130
ss(Vimage
p1131
g1105
NVmips32r6
p1132
tp1133
(dp1134
Vconfigs
p1135
(lp1136
Vkernelarch-mips/config.boston
p1137
aVkernelarch-mips/config.mips32r6
p1138
ass(Vdescription
p1139
g1105
NVmips64r6
p1140
tp1141
(dp1142
Vhardware
p1143
VMIPS R6 (64 bit, big endian)
p1144
sVhardware-long
p1145
VMIPS R6 (64 bit, big endian)
p1146
ss(Vimage
p1147
g1105
NVmips64r6
p1148
tp1149
(dp1150
Vconfigs
p1151
(lp1152
Vkernelarch-mips/config.boston
p1153
aVkernelarch-mips/config.mips64r6
p1154
ass(g221
g1105
g190
tp1155
(dp1156
g224
(lp1157
Vmips32r6
p1158
aVmips64r6
p1159
asg228
I01
ss(Vbase
p1160
Vmipsr6el
p1161
tp1162
(dp1163
Vdefault-flavour
p1164
Vmips32r6el
p1165
sVkernel-arch
p1166
Vmips
p1167
sg188
(lp1168
g190
ass(Vbuild
p1169
g1161
tp1170
(dp1171
Vimage-file
p1172
Vvmlinux
p1173
ss(Vimage
p1174
g1161
tp1175
(dp1176
Vinstall-stem
p1177
Vvmlinux
p1178
ss(Vdescription
p1179
g1161
NVmips32r6el
p1180
tp1181
(dp1182
Vhardware
p1183
VMIPS R6 (32 bit, little endian)
p1184
sVhardware-long
p1185
VMIPS R6 (32 bit, little endian)
p1186
ss(Vimage
p1187
g1161
NVmips32r6el
p1188
tp1189
(dp1190
Vconfigs
p1191
(lp1192
Vkernelarch-mips/config.boston
p1193
aVkernelarch-mips/config.mips32r6
p1194
ass(Vdescription
p1195
g1161
NVmips64r6el
p1196
tp1197
(dp1198
Vhardware
p1199
VMIPS R6 (64 bit, little endian)
p1200
sVhardware-long
p1201
VMIPS R6 (64 bit, little endian)
p1202
ss(Vimage
p1203
g1161
NVmips64r6el
p1204
tp1205
(dp1206
Vconfigs
p1207
(lp1208
Vkernelarch-mips/config.boston
p1209
aVkernelarch-mips/config.mips64r6
p1210
ass(g221
g1161
g190
tp1211
(dp1212
g224
(lp1213
Vmips32r6el
p1214
aVmips64r6el
p1215
asg228
I01
ss(Vbase
p1216
Vpowerpc
p1217
tp1218
(dp1219
Vkernel-arch
p1220
Vpowerpc
p1221
sg188
(lp1222
g190
ass(Vbuild
p1223
g1217
tp1224
(dp1225
Vimage-file
p1226
Vvmlinux
p1227
sVvdso
p1228
I01
ss(Vimage
p1229
g1217
tp1230
(dp1231
Vconfigs
p1232
(lp1233
sVbootloaders
p1234
(lp1235
Vgrub-ieee1275
p1236
asVsuggests
p1237
(lp1238
Vmkvmlinuz
p1239
asVinstall-stem
p1240
Vvmlinux
p1241
ss(Vdescription
p1242
g1217
NVpowerpc
p1243
tp1244
(dp1245
Vhardware
p1246
Vuniprocessor 32-bit PowerPC
p1247
ss(Vdescription
p1248
g1217
NVpowerpc-smp
p1249
tp1250
(dp1251
Vhardware
p1252
Vmultiprocessor 32-bit PowerPC
p1253
ss(Vimage
p1254
g1217
NVpowerpc-smp
p1255
tp1256
(dp1257
Vconfigs
p1258
(lp1259
Vpowerpc/config.powerpc
p1260
aVpowerpc/config.powerpc-smp
p1261
ass(Vdescription
p1262
g1217
NVpowerpc64
p1263
tp1264
(dp1265
Vhardware
p1266
V64-bit PowerPC
p1267
ss(Vimage
p1268
g1217
NVpowerpc64
p1269
tp1270
(dp1271
Vconfigs
p1272
(lp1273
Vkernelarch-powerpc/config-arch-64
p1274
aVkernelarch-powerpc/config-arch-64-be
p1275
ass(g221
g1217
g190
tp1276
(dp1277
g224
(lp1278
Vpowerpc
p1279
aVpowerpc-smp
p1280
aVpowerpc64
p1281
asg228
I01
ss(Vbase
p1282
Vppc64
p1283
tp1284
(dp1285
Vdefault-flavour
p1286
Vpowerpc64
p1287
sVkernel-arch
p1288
Vpowerpc
p1289
sg188
(lp1290
g190
ass(Vbuild
p1291
g1283
tp1292
(dp1293
Vimage-file
p1294
Vvmlinux
p1295
sVvdso
p1296
I01
ss(Vimage
p1297
g1283
tp1298
(dp1299
Vconfigs
p1300
(lp1301
sVbootloaders
p1302
(lp1303
Vgrub-ieee1275
p1304
asVsuggests
p1305
(lp1306
Vmkvmlinuz
p1307
asVinstall-stem
p1308
Vvmlinux
p1309
ss(Vdescription
p1310
g1283
NVpowerpc64
p1311
tp1312
(dp1313
Vhardware
p1314
V64-bit PowerPC
p1315
ss(Vimage
p1316
g1283
NVpowerpc64
p1317
tp1318
(dp1319
Vconfigs
p1320
(lp1321
Vkernelarch-powerpc/config-arch-64
p1322
aVkernelarch-powerpc/config-arch-64-be
p1323
ass(g221
g1283
g190
tp1324
(dp1325
g224
(lp1326
Vpowerpc64
p1327
asg228
I01
ss(Vbase
p1328
Vppc64el
p1329
tp1330
(dp1331
Vdefault-flavour
p1332
Vpowerpc64le
p1333
sVkernel-arch
p1334
Vpowerpc
p1335
sg188
(lp1336
g190
ass(Vbuild
p1337
g1329
tp1338
(dp1339
Vimage-file
p1340
Vvmlinux
p1341
sVvdso
p1342
I01
ss(Vimage
p1343
g1329
tp1344
(dp1345
Vconfigs
p1346
(lp1347
sVbootloaders
p1348
(lp1349
Vgrub-ieee1275
p1350
asVsuggests
p1351
(lp1352
Vmkvmlinuz
p1353
asVinstall-stem
p1354
Vvmlinux
p1355
ss(Vdescription
p1356
g1329
NVpowerpc64le
p1357
tp1358
(dp1359
Vhardware
p1360
VLittle-endian 64-bit PowerPC
p1361
ss(Vimage
p1362
g1329
NVpowerpc64le
p1363
tp1364
(dp1365
Vconfigs
p1366
(lp1367
Vkernelarch-powerpc/config-arch-64
p1368
aVkernelarch-powerpc/config-arch-64-le
p1369
ass(g221
g1329
g190
tp1370
(dp1371
g224
(lp1372
Vpowerpc64le
p1373
asg228
I01
ss(Vbase
p1374
Vriscv64
p1375
tp1376
(dp1377
Vkernel-arch
p1378
Vriscv
p1379
sVfeaturesets
p1380
(lp1381
Vnone
p1382
ass(Vbuild
p1383
g1375
tp1384
(dp1385
Vimage-file
p1386
Varch/riscv/boot/Image
p1387
sVvdso
p1388
I01
ss(Vimage
p1389
g1375
tp1390
(dp1391
Vinstall-stem
p1392
Vvmlinux
p1393
ss(Vdescription
p1394
g1375
NVriscv64
p1395
tp1396
(dp1397
Vhardware
p1398
V64-bit RISC-V platforms
p1399
sVhardware-long
p1400
V64-bit RISC-V platforms
p1401
ss(Vbase
p1402
g1375
Vnone
p1403
tp1404
(dp1405
Vflavours
p1406
(lp1407
Vriscv64
p1408
asVdefault-flavour
p1409
Vriscv64
p1410
ss(Vbase
p1411
Vs390
p1412
tp1413
(dp1414
Vkernel-arch
p1415
Vs390
p1416
sVfeaturesets
p1417
(lp1418
ss(Vbase
p1419
Vs390x
p1420
tp1421
(dp1422
Vdefault-flavour
p1423
Vs390x
p1424
sVkernel-arch
p1425
Vs390
p1426
sg188
(lp1427
g190
ass(Vbuild
p1428
g1420
tp1429
(dp1430
Vimage-file
p1431
Varch/s390/boot/bzImage
p1432
sVvdso
p1433
I01
ss(Vimage
p1434
g1420
tp1435
(dp1436
Vbootloaders
p1437
(lp1438
Vs390-tools
p1439
asVinstall-stem
p1440
Vvmlinuz
p1441
ss(Vrelations
p1442
g1420
tp1443
(dp1444
Vheaders%gcc-8
p1445
Vlinux-compiler-gcc-8-s390
p1446
ss(Vdescription
p1447
g1420
NVs390x
p1448
tp1449
(dp1450
Vhardware
p1451
VIBM zSeries
p1452
ss(g221
g1420
g190
tp1453
(dp1454
g224
(lp1455
Vs390x
p1456
asg228
I01
ss(Vbase
p1457
Vsh3
p1458
tp1459
(dp1460
Vkernel-arch
p1461
Vsh
p1462
sVfeaturesets
p1463
(lp1464
ss(Vbase
p1465
Vsh4
p1466
tp1467
(dp1468
Vkernel-arch
p1469
Vsh
p1470
sg188
(lp1471
g190
ass(Vbuild
p1472
g1466
tp1473
(dp1474
Vimage-file
p1475
Varch/sh/boot/zImage
p1476
ss(Vimage
p1477
g1466
tp1478
(dp1479
Vinstall-stem
p1480
Vvmlinuz
p1481
ss(Vdescription
p1482
g1466
NVsh7751r
p1483
tp1484
(dp1485
Vhardware
p1486
Vsh7751r
p1487
sVhardware-long
p1488
VRenesas SH7751R R2D plus board
p1489
ss(Vdescription
p1490
g1466
NVsh7785lcr
p1491
tp1492
(dp1493
Vhardware
p1494
Vsh7785lcr
p1495
sVhardware-long
p1496
VRenesas SH7785 reference board
p1497
ss(Vimage
p1498
g1466
NVsh7785lcr
p1499
tp1500
(dp1501
Vrecommends
p1502
(lp1503
Vu-boot-tools
p1504
asVcheck-size
p1505
I4194304
ss(g221
g1466
g190
tp1506
(dp1507
g224
(lp1508
Vsh7751r
p1509
aVsh7785lcr
p1510
asg228
I01
ss(Vbase
p1511
Vsparc
p1512
tp1513
(dp1514
Vkernel-arch
p1515
Vsparc
p1516
sVfeaturesets
p1517
(lp1518
ss(Vbase
p1519
Vsparc64
p1520
tp1521
(dp1522
Vdefault-flavour
p1523
Vsparc64-smp
p1524
sVkernel-arch
p1525
Vsparc
p1526
sg188
(lp1527
g190
ass(Vbuild
p1528
g1520
tp1529
(dp1530
Vimage-file
p1531
Vvmlinux
p1532
ss(Vimage
p1533
g1520
tp1534
(dp1535
Vconfigs
p1536
(lp1537
sVbootloaders
p1538
(lp1539
Vgrub-ieee1275
p1540
asVsuggests
p1541
(lp1542
Vfdutils
p1543
asVinstall-stem
p1544
Vvmlinux
p1545
ss(Vdescription
p1546
g1520
NVsparc64
p1547
tp1548
(dp1549
Vhardware
p1550
Vuniprocessor 64-bit UltraSPARC
p1551
ss(Vimage
p1552
g1520
NVsparc64
p1553
tp1554
(dp1555
Vconfigs
p1556
(lp1557
Vkernelarch-sparc/config-up
p1558
ass(Vdescription
p1559
g1520
NVsparc64-smp
p1560
tp1561
(dp1562
Vhardware
p1563
Vmultiprocessor 64-bit UltraSPARC
p1564
ss(Vimage
p1565
g1520
NVsparc64-smp
p1566
tp1567
(dp1568
Vconfigs
p1569
(lp1570
Vkernelarch-sparc/config-smp
p1571
ass(g221
g1520
g190
tp1572
(dp1573
g224
(lp1574
Vsparc64
p1575
aVsparc64-smp
p1576
asg228
I01
ss(Vbase
p1577
Vx32
p1578
tp1579
(dp1580
Vkernel-arch
p1581
Vx86
p1582
sVfeaturesets
p1583
(lp1584
ss(Vabi
p1585
NVrt
p1586
tp1587
(dp1588
Vignore-changes
p1589
(lp1590
V*
p1591
ass(Vdescription
p1592
Ng1586
tp1593
(dp1594
Vpart-long-rt
p1595
VThis kernel includes the PREEMPT_RT realtime patch set.
p1596
sVpart-short-rt
p1597
VPREEMPT_RT
p1598
sVparts
p1599
(lp1600
Vrt
p1601
ass(Vversion
p1602
tp1603
(dp1604
Vsource
p1605
V5.10.40-1+apertis1~2021
p1606
sVupstream
p1607
V5.10
p1608
sVabiname_base
p1609
V5.10.0
p1610
sVabiname
p1611
V5.10.0-7
p1612
ss.