cdebian_linux.config
ConfigCore
p0
(tRp1
(Vpackages
p2
tp3
(dp4
Vinstaller
p5
I00
ss(Vabi
p6
tp7
(dp8
Vabiname
p9
V4
p10
sVignore-changes
p11
(lp12
V__cpuhp_*
p13
aV__udp_gso_segment
p14
aVbpf_analyzer
p15
aVcxl_*
p16
aVdax_flush
p17
aVieee80211_nullfunc_get
p18
aVinet_add_protocol
p19
aVinet_del_protocol
p20
aViommu_device_*
p21
aVmm_iommu_*
p22
aVmv_mbus_*
p23
aVperf_*
p24
aVregister_cxl_calls
p25
aVregister_key_type
p26
aVunregister_cxl_calls
p27
aV*_hw_breakpoint
p28
aVmodule:drivers/crypto/ccp/*
p29
aVmodule:drivers/hv/*
p30
aVmodule:drivers/gpu/drm/sun4i/*
p31
aVmodule:drivers/iio/**
p32
aVmodule:drivers/misc/cxl/*
p33
aVmodule:drivers/mtd/nand/*
p34
aVmodule:drivers/net/ethernet/**
p35
aVmodule:drivers/net/wireless/**
p36
aVmodule:drivers/nvdimm/*
p37
aVmodule:drivers/nvme/**
p38
aVmodule:drivers/power/supply/bq27xxx_battery
p39
aVmodule:drivers/scsi/cxgbi/*
p40
aVmodule:drivers/scsi/libiscs*
p41
aVmodule:drivers/scsi/qla2xxx/qla2xxx
p42
aVmodule:drivers/scsi/ufs/*
p43
aVmodule:drivers/target/**
p44
aVmodule:drivers/usb/chipidea/**
p45
aVmodule:drivers/usb/gadget/**
p46
aVmodule:drivers/usb/host/**
p47
aVmodule:drivers/usb/musb/**
p48
aVmodule:fs/nfs/**
p49
aVmodule:net/ceph/libceph
p50
aVmodule:net/l2tp/**
p51
aVmodule:net/rxrpc/rxrpc
p52
aVmodule:net/sctp/**
p53
aVmodule:sound/core/seq/**
p54
aVmodule:sound/firewire/snd-firewire-lib
p55
aVmodule:sound/pci/hda/*
p56
aVbtree_*
p57
aVvisitor*
p58
aVcan_rx_register
p59
aVip6_xmit
p60
aVmodule:net/dccp/dccp
p61
aVmodule:net/rds/rds
p62
aVdevfreq_*
p63
aVdevm_devfreq_*
p64
aVupdate_devfreq
p65
aVmodule:drivers/infiniband/**
p66
aVacpi_ec_add_query_handler
p67
aVacpi_ec_remove_query_handler
p68
aVfirst_ec
p69
aVdebugfs_create_automount
p70
aVmodule:drivers/iio/imu/inv_mpu6050/*
p71
aVdrm_crtc_accurate_vblank_count
p72
aVacpi_nfit_desc_init
p73
aVacpi_nfit_init
p74
aVloop_register_transfer
p75
aVxen_xlate_*
p76
aVnf_nat_masquerade_ipv4_register_notifier
p77
aVnf_nat_masquerade_ipv6_register_notifier
p78
aVdfltcc_*
p79
aVmodule:drivers/scsi/hisi_sas/*
p80
aV__gfn_*
p81
aV__kvmhv_*
p82
aV__kvm_*
p83
aV__xive_vm_h_*
p84
aVgfn_*
p85
aVh_ipi_redirect
p86
aVhalt_poll_ns*
p87
aVkvm_*
p88
aVkvmhv_*
p89
aVkvmppc_*
p90
aVmark_page_dirty
p91
aVvcpu_*
p92
aVmodule:arch/powerpc/kvm/*
p93
aVmodule:arch/s390/kvm/*
p94
aVmodule:arch/x86/kvm/*
p95
aVuv_info
p96
aVxhci_init_driver
p97
ass(Vbase
p98
tp99
(dp100
Varches
p101
(lp102
Valpha
p103
aVamd64
p104
aVarm64
p105
aVarm64ilp32
p106
aVarmel
p107
aVarmhf
p108
aVhppa
p109
aVi386
p110
aVia64
p111
aVm68k
p112
aVmips
p113
aVmips64
p114
aVmips64el
p115
aVmips64r6
p116
aVmips64r6el
p117
aVmipsel
p118
aVmipsn32
p119
aVmipsn32el
p120
aVmipsn32r6
p121
aVmipsn32r6el
p122
aVmipsr6
p123
aVmipsr6el
p124
aVpowerpc
p125
aVppc64
p126
aVppc64el
p127
aVriscv64
p128
aVs390
p129
aVs390x
p130
aVsh3
p131
aVsh4
p132
aVsparc
p133
aVsparc64
p134
aVx32
p135
asVcompiler
p136
Vgcc-10
p137
sVfeaturesets
p138
(lp139
Vnone
p140
aVrt
p141
ass(Vbuild
p142
tp143
(dp144
Vdebug-info
p145
I01
sVsigned-code
p146
I00
ss(Vbase
p147
NVrt
p148
tp149
(dp150
Venabled
p151
I01
ss(Vdescription
p152
tp153
(dp154
Vpart-long-up
p155
VThis kernel is not suitable for SMP (multi-processor,\u000amulti-core or hyper-threaded) systems.
p156
ss(Vimage
p157
tp158
(dp159
Vinitramfs-generators
p160
(lp161
Vinitramfs-tools
p162
aVinitramfs-fallback
p163
asVbreaks
p164
(lp165
Vwireless-regdb (<< 2019.06.03-1~)
p166
asVrecommends
p167
(lp168
Vapparmor
p169
ass(Vrelations
p170
tp171
(dp172
Vgcc-10
p173
Vgcc-10 <!stage1 !cross !pkg.linux.nokernel>, gcc-10-@gnu-type-package@ <!stage1 cross !pkg.linux.nokernel>
p174
sVinitramfs-fallback
p175
Vlinux-initramfs-tool
p176
sVinitramfs-tools
p177
Vinitramfs-tools (>= 0.120+deb8u2)
p178
ss(Vbase
p179
Valpha
p180
tp181
(dp182
Vdefault-flavour
p183
Valpha-smp
p184
sVkernel-arch
p185
Valpha
p186
sVfeaturesets
p187
(lp188
Vnone
p189
ass(Vbuild
p190
g180
tp191
(dp192
Vimage-file
p193
Varch/alpha/boot/vmlinux.gz
p194
ss(Vimage
p195
g180
tp196
(dp197
Vsuggests
p198
(lp199
Vaboot
p200
aVfdutils
p201
asVinstall-stem
p202
Vvmlinuz
p203
ss(Vdescription
p204
g180
NValpha-generic
p205
tp206
(dp207
Vhardware
p208
VAlpha
p209
sVhardware-long
p210
VDEC Alpha systems with extended kernel start address (Wildfire, Titan, Marvel)
p211
ss(Vdescription
p212
g180
NValpha-smp
p213
tp214
(dp215
Vhardware
p216
VAlpha SMP
p217
sVhardware-long
p218
VDEC Alpha SMP systems with extended kernel start address (Wildfire, Titan, Marvel)
p219
ss(Vbase
p220
g180
g189
tp221
(dp222
Vflavours
p223
(lp224
Valpha-generic
p225
aValpha-smp
p226
asVimplicit-flavour
p227
I01
ss(Vbase
p228
Vamd64
p229
tp230
(dp231
Vfeaturesets
p232
(lp233
Vnone
p234
asVkernel-arch
p235
Vx86
p236
ss(Vbuild
p237
g229
tp238
(dp239
Vimage-file
p240
Varch/x86/boot/bzImage
p241
sVsigned-code
p242
I00
sVvdso
p243
I01
ss(Vimage
p244
g229
tp245
(dp246
Vbootloaders
p247
(lp248
Vgrub-pc
p249
aVgrub-efi-amd64
p250
aVextlinux
p251
asVinstall-stem
p252
Vvmlinuz
p253
sVbreaks
p254
(lp255
Vxserver-xorg-input-vmmouse (<< 1:13.0.99)
p256
ass(Vrelations
p257
g229
tp258
(dp259
Vheaders%gcc-10
p260
Vlinux-compiler-gcc-10-x86
p261
ss(Vdescription
p262
g229
NVamd64
p263
tp264
(dp265
Vhardware
p266
V64-bit PCs
p267
sVhardware-long
p268
VPCs with AMD64, Intel 64 or VIA Nano processors
p269
ss(Vdescription
p270
g229
NVcloud-amd64
p271
tp272
(dp273
Vhardware
p274
Vx86-64 cloud
p275
sVhardware-long
p276
Vcloud platforms including Amazon EC2, Microsoft Azure, and Google Compute Engine
p277
ss(Vbase
p278
g229
Vnone
p279
tp280
(dp281
Vflavours
p282
(lp283
Vamd64
p284
asVdefault-flavour
p285
Vamd64
p286
ss(Vimage
p287
g229
g279
Vcloud-amd64
p288
tp289
(dp290
Vconfigs
p291
(lp292
Vconfig.cloud
p293
aVamd64/config.cloud-amd64
p294
ass(Vbase
p295
Varm64
p296
tp297
(dp298
Vcross-compile-compat
p299
Varm-linux-gnueabihf-
p300
sVkernel-arch
p301
Varm64
p302
sVfeaturesets
p303
(lp304
Vnone
p305
ass(Vbuild
p306
g296
tp307
(dp308
Vimage-file
p309
Varch/arm64/boot/Image
p310
sVsigned-code
p311
I00
sVvdso
p312
I01
ss(Vimage
p313
g296
tp314
(dp315
Vinstall-stem
p316
Vvmlinuz
p317
sVbreaks
p318
(lp319
Vlibmozjs185-1.0
p320
aVlibmozjs-24-0 (<< 24.2.0-5.1~)
p321
ass(Vdescription
p322
g296
NVarm64
p323
tp324
(dp325
Vhardware
p326
V64-bit ARMv8 machines
p327
ss(Vdescription
p328
g296
NVcloud-arm64
p329
tp330
(dp331
Vhardware
p332
Varm64 cloud
p333
sVhardware-long
p334
Vcloud platforms supporting arm64 virtual machines
p335
ss(Vimage
p336
g296
NVarm64
p337
tp338
(dp339
s(Vrelations
p340
g296
tp341
(dp342
Vgcc-10
p343
Vgcc-10 <!stage1 !cross !pkg.linux.nokernel>, gcc-10-aarch64-linux-gnu <!stage1 cross !pkg.linux.nokernel>, gcc-arm-linux-gnueabihf <!stage1 !pkg.linux.nokernel>
p344
sVheaders%gcc-10
p345
Vgcc-10
p346
ss(Vbase
p347
g296
Vnone
p348
tp349
(dp350
Vflavours
p351
(lp352
Varm64
p353
asVdefault-flavour
p354
Varm64
p355
ss(Vimage
p356
g296
g348
Vcloud-arm64
p357
tp358
(dp359
Vconfigs
p360
(lp361
Vconfig.cloud
p362
aVarm64/config.cloud-arm64
p363
ass(Vbase
p364
Varm64ilp32
p365
tp366
(dp367
Vkernel-arch
p368
Varm64
p369
sVfeaturesets
p370
(lp371
ss(Vbase
p372
Varmel
p373
tp374
(dp375
Vkernel-arch
p376
Varm
p377
sg187
(lp378
g189
ass(Vbuild
p379
g373
tp380
(dp381
Vimage-file
p382
Varch/arm/boot/zImage
p383
sVuncompressed-image-file
p384
Varch/arm/boot/Image
p385
ss(Vimage
p386
g373
tp387
(dp388
Vinstall-stem
p389
Vvmlinuz
p390
ss(Vrelations
p391
g373
tp392
(dp393
Vheaders%gcc-10
p394
Vlinux-compiler-gcc-10-arm
p395
ss(Vdescription
p396
g373
NVmarvell
p397
tp398
(dp399
Vhardware
p400
VMarvell Kirkwood/Orion
p401
sVhardware-long
p402
VMarvell Kirkwood and Orion based systems (https://wiki.debian.org/ArmEabiPort#Supported_hardware)
p403
ss(Vdescription
p404
g373
NVrpi
p405
tp406
(dp407
Vhardware
p408
VRaspberry Pi and Pi Zero
p409
sVhardware-long
p410
VRaspberry Pi, Raspberry Pi Zero based systems
p411
ss(Vimage
p412
g373
NVmarvell
p413
tp414
(dp415
Vrecommends
p416
(lp417
Vu-boot-tools
p418
asVcheck-size
p419
I2729712
sVcheck-size-with-dtb
p420
I01
sVbreaks
p421
(lp422
Vflash-kernel (<< 3.57~)
p423
ass(g220
g373
g189
tp424
(dp425
g223
(lp426
Vmarvell
p427
aVrpi
p428
asg227
I01
ss(Vbase
p429
Varmhf
p430
tp431
(dp432
Vfeaturesets
p433
(lp434
Vnone
p435
asVkernel-arch
p436
Varm
p437
ss(Vbuild
p438
g430
tp439
(dp440
Vimage-file
p441
Varch/arm/boot/zImage
p442
sVvdso
p443
I01
ss(Vimage
p444
g430
tp445
(dp446
Vinstall-stem
p447
Vvmlinuz
p448
ss(Vrelations
p449
g430
tp450
(dp451
Vheaders%gcc-10
p452
Vlinux-compiler-gcc-10-arm
p453
ss(Vdescription
p454
g430
NVarmmp
p455
tp456
(dp457
Vhardware
p458
VARMv7 multiplatform compatible SoCs
p459
sVhardware-long
p460
VARMv7 multiplatform kernel. See\u000ahttps://wiki.debian.org/DebianKernel/ARMMP for details of supported\u000aplatforms
p461
ss(Vdescription
p462
g430
NVarmmp-lpae
p463
tp464
(dp465
Vhardware
p466
VARMv7 multiplatform compatible SoCs supporting LPAE
p467
sVhardware-long
p468
VARMv7 multiplatform kernel supporting LPAE. See\u000ahttps://wiki.debian.org/DebianKernel/ARMMP for details of supported\u000aplatforms.
p469
ss(Vbase
p470
g430
Vnone
p471
tp472
(dp473
Vflavours
p474
(lp475
Varmmp
p476
aVarmmp-lpae
p477
asVdefault-flavour
p478
Varmmp
p479
ss(Vbase
p480
Vhppa
p481
tp482
(dp483
Vdefault-flavour
p484
Vparisc
p485
sVkernel-arch
p486
Vparisc
p487
sg187
(lp488
g189
ass(Vbuild
p489
g481
tp490
(dp491
Vimage-file
p492
Varch/parisc/boot/bzImage
p493
sVdebug-info
p494
I00
ss(Vimage
p495
g481
tp496
(dp497
Vsuggests
p498
(lp499
Vpalo
p500
asVinstall-stem
p501
Vvmlinuz
p502
ss(Vdescription
p503
g481
NVparisc
p504
tp505
(dp506
Vhardware
p507
V32-bit PA-RISC
p508
sVhardware-long
p509
VHP PA-RISC 32-bit systems with max 4 GB RAM
p510
ss(Vbase
p511
g481
NVparisc64
p512
tp513
(dp514
Vcflags
p515
V-fno-cse-follow-jumps
p516
sVoverride-host-type
p517
Vhppa64-linux-gnu
p518
ss(Vdescription
p519
g481
NVparisc64
p520
tp521
(dp522
Vhardware
p523
V64-bit PA-RISC
p524
sVhardware-long
p525
VHP PA-RISC 64-bit systems with support for more than 4 GB RAM
p526
ss(Vrelations
p527
g481
tp528
(dp529
Vgcc-10
p530
Vgcc-10 <!stage1 !cross !pkg.linux.nokernel>, gcc-10-hppa-linux-gnu <!stage1 cross !pkg.linux.nokernel>, binutils-hppa64-linux-gnu <!stage1 !pkg.linux.nokernel>, gcc-10-hppa64-linux-gnu <!stage1 !pkg.linux.nokernel>
p531
ss(g220
g481
g189
tp532
(dp533
g223
(lp534
Vparisc
p535
aVparisc64
p536
asg227
I01
ss(Vbase
p537
Vi386
p538
tp539
(dp540
Vfeaturesets
p541
(lp542
Vnone
p543
asVkernel-arch
p544
Vx86
p545
ss(Vbuild
p546
g538
tp547
(dp548
Vimage-file
p549
Varch/x86/boot/bzImage
p550
sVsigned-code
p551
I00
sVvdso
p552
I01
ss(Vdescription
p553
g538
tp554
(dp555
Vpart-long-pae
p556
VThis kernel requires PAE (Physical Address Extension).\u000aThis feature is supported by the Intel Pentium Pro/II/III/4/4M/D, Xeon,\u000aCore and Atom; AMD Geode NX, Athlon (K7), Duron, Opteron, Sempron,\u000aTurion or Phenom; Transmeta Efficeon; VIA C7; and some other processors.
p557
ss(Vimage
p558
g538
tp559
(dp560
Vbootloaders
p561
(lp562
Vgrub-pc
p563
aVgrub-efi-ia32
p564
aVextlinux
p565
asVinstall-stem
p566
Vvmlinuz
p567
sVbreaks
p568
(lp569
Vxserver-xorg-input-vmmouse (<< 1:13.0.99)
p570
ass(Vrelations
p571
g538
tp572
(dp573
Vheaders%gcc-10
p574
Vlinux-compiler-gcc-10-x86
p575
ss(Vdescription
p576
g538
NV686
p577
tp578
(dp579
Vhardware
p580
Volder PCs
p581
sVhardware-long
p582
VPCs with one or more processors not supporting PAE
p583
ss(Vdescription
p584
g538
NV686-pae
p585
tp586
(dp587
Vhardware
p588
Vmodern PCs
p589
sVhardware-long
p590
VPCs with one or more processors supporting PAE
p591
sVparts
p592
(lp593
Vpae
p594
ass(Vbase
p595
g538
Vnone
p596
tp597
(dp598
Vflavours
p599
(lp600
V686
p601
aV686-pae
p602
asVdefault-flavour
p603
V686-pae
p604
ss(Vbase
p605
Via64
p606
tp607
(dp608
Vdefault-flavour
p609
Vitanium
p610
sVkernel-arch
p611
Via64
p612
sg187
(lp613
g189
ass(Vbuild
p614
g606
tp615
(dp616
Vimage-file
p617
Vvmlinux.gz
p618
ss(Vimage
p619
g606
tp620
(dp621
Vbootloaders
p622
(lp623
Vgrub-efi-ia64
p624
asVinstall-stem
p625
Vvmlinuz
p626
ss(Vdescription
p627
g606
NVitanium
p628
tp629
(dp630
Vhardware
p631
VItanium (Merced)
p632
sVhardware-long
p633
Vsystems with original Itanium (Merced) processors
p634
ss(Vdescription
p635
g606
NVmckinley
p636
tp637
(dp638
Vhardware
p639
VItanium 2+
p640
sVhardware-long
p641
Vsystems with Itanium 2 or 9300/9500/9700-series processors
p642
ss(g220
g606
g189
tp643
(dp644
g223
(lp645
Vitanium
p646
aVmckinley
p647
asg227
I01
ss(Vbase
p648
Vm68k
p649
tp650
(dp651
Vcflags
p652
V-ffreestanding
p653
sVdefault-flavour
p654
Vm68k
p655
sVkernel-arch
p656
Vm68k
p657
sg187
(lp658
g189
ass(Vbuild
p659
g649
tp660
(dp661
Vimage-file
p662
Vvmlinux
p663
ss(Vimage
p664
g649
tp665
(dp666
Vsuggests
p667
(lp668
Vvmelilo
p669
aVfdutils
p670
asVinstall-stem
p671
Vvmlinux
p672
ss(Vdescription
p673
g649
NVm68k
p674
tp675
(dp676
Vhardware
p677
VMotorola MC68020+ family
p678
ss(g220
g649
g189
tp679
(dp680
g223
(lp681
Vm68k
p682
asg227
I01
ss(Vbase
p683
Vmips
p684
tp685
(dp686
Vkernel-arch
p687
Vmips
p688
sg187
(lp689
g189
ass(Vbuild
p690
g684
tp691
(dp692
Vimage-file
p693
Vvmlinuz
p694
ss(Vimage
p695
g684
tp696
(dp697
Vinstall-stem
p698
Vvmlinuz
p699
ss(Vdescription
p700
g684
NV4kc-malta
p701
tp702
(dp703
Vhardware
p704
VMIPS Malta
p705
sVhardware-long
p706
VMIPS Malta boards
p707
ss(Vimage
p708
g684
NV4kc-malta
p709
tp710
(dp711
Vconfigs
p712
(lp713
Vkernelarch-mips/config.malta
p714
aVkernelarch-mips/config.mips32r2
p715
ass(Vdescription
p716
g684
NV5kc-malta
p717
tp718
(dp719
Vhardware
p720
VMIPS Malta (64-bit)
p721
sVhardware-long
p722
VMIPS Malta boards (64-bit)
p723
ss(Vimage
p724
g684
NV5kc-malta
p725
tp726
(dp727
Vconfigs
p728
(lp729
Vkernelarch-mips/config.malta
p730
aVkernelarch-mips/config.mips64r2
p731
ass(Vdescription
p732
g684
NVocteon
p733
tp734
(dp735
Vhardware
p736
VOcteon
p737
sVhardware-long
p738
VCavium Networks Octeon
p739
ss(Vbuild
p740
g684
NVocteon
p741
tp742
(dp743
Vimage-file
p744
Vvmlinux
p745
ss(Vimage
p746
g684
NVocteon
p747
tp748
(dp749
Vinstall-stem
p750
Vvmlinux
p751
sVconfigs
p752
(lp753
Vkernelarch-mips/config.octeon
p754
ass(g220
g684
g189
tp755
(dp756
g223
(lp757
V4kc-malta
p758
aV5kc-malta
p759
aVocteon
p760
asg227
I01
ss(Vbase
p761
Vmips64
p762
tp763
(dp764
Vkernel-arch
p765
Vmips
p766
sg187
(lp767
g189
ass(Vbuild
p768
g762
tp769
(dp770
Vimage-file
p771
Vvmlinuz
p772
ss(Vimage
p773
g762
tp774
(dp775
Vinstall-stem
p776
Vvmlinuz
p777
ss(Vdescription
p778
g762
NV5kc-malta
p779
tp780
(dp781
Vhardware
p782
VMIPS Malta
p783
sVhardware-long
p784
VMIPS Malta boards
p785
ss(Vimage
p786
g762
NV5kc-malta
p787
tp788
(dp789
Vconfigs
p790
(lp791
Vkernelarch-mips/config.malta
p792
aVkernelarch-mips/config.mips64r2
p793
ass(Vdescription
p794
g762
NVocteon
p795
tp796
(dp797
Vhardware
p798
VOcteon
p799
sVhardware-long
p800
VCavium Networks Octeon
p801
ss(Vbuild
p802
g762
NVocteon
p803
tp804
(dp805
Vimage-file
p806
Vvmlinux
p807
ss(Vimage
p808
g762
NVocteon
p809
tp810
(dp811
Vinstall-stem
p812
Vvmlinux
p813
sVconfigs
p814
(lp815
Vkernelarch-mips/config.octeon
p816
ass(g220
g762
g189
tp817
(dp818
g223
(lp819
V5kc-malta
p820
aVocteon
p821
asg227
I01
ss(Vbase
p822
Vmips64el
p823
tp824
(dp825
Vkernel-arch
p826
Vmips
p827
sg187
(lp828
g189
ass(Vbuild
p829
g823
tp830
(dp831
Vimage-file
p832
Vvmlinuz
p833
ss(Vimage
p834
g823
tp835
(dp836
Vinstall-stem
p837
Vvmlinuz
p838
ss(Vdescription
p839
g823
NV5kc-malta
p840
tp841
(dp842
Vhardware
p843
VMIPS Malta
p844
sVhardware-long
p845
VMIPS Malta boards
p846
ss(Vimage
p847
g823
NV5kc-malta
p848
tp849
(dp850
Vconfigs
p851
(lp852
Vkernelarch-mips/config.malta
p853
aVkernelarch-mips/config.mips64r2
p854
ass(Vdescription
p855
g823
NVloongson-3
p856
tp857
(dp858
Vhardware
p859
VLoongson 3A/3B
p860
sVhardware-long
p861
VLoongson 3A or 3B based systems (e.g. from Loongson or Lemote)
p862
ss(Vimage
p863
g823
NVloongson-3
p864
tp865
(dp866
Vconfigs
p867
(lp868
Vkernelarch-mips/config.loongson-3
p869
ass(Vdescription
p870
g823
NVocteon
p871
tp872
(dp873
Vhardware
p874
VOcteon
p875
sVhardware-long
p876
VCavium Networks Octeon
p877
ss(Vbuild
p878
g823
NVocteon
p879
tp880
(dp881
Vimage-file
p882
Vvmlinux
p883
ss(Vimage
p884
g823
NVocteon
p885
tp886
(dp887
Vinstall-stem
p888
Vvmlinux
p889
sVconfigs
p890
(lp891
Vkernelarch-mips/config.octeon
p892
ass(g220
g823
g189
tp893
(dp894
g223
(lp895
V5kc-malta
p896
aVloongson-3
p897
aVocteon
p898
asg227
I01
ss(Vbase
p899
Vmips64r6
p900
tp901
(dp902
Vdefault-flavour
p903
Vmips64r6
p904
sVkernel-arch
p905
Vmips
p906
sg187
(lp907
g189
ass(Vbuild
p908
g900
tp909
(dp910
Vimage-file
p911
Vvmlinux
p912
ss(Vimage
p913
g900
tp914
(dp915
Vinstall-stem
p916
Vvmlinux
p917
ss(Vdescription
p918
g900
NVmips64r6
p919
tp920
(dp921
Vhardware
p922
VMIPS R6 (64 bit, big endian)
p923
sVhardware-long
p924
VMIPS R6 (64 bit, big endian)
p925
ss(Vimage
p926
g900
NVmips64r6
p927
tp928
(dp929
Vconfigs
p930
(lp931
Vkernelarch-mips/config.boston
p932
aVkernelarch-mips/config.mips64r6
p933
ass(g220
g900
g189
tp934
(dp935
g223
(lp936
Vmips64r6
p937
asg227
I01
ss(Vbase
p938
Vmips64r6el
p939
tp940
(dp941
Vdefault-flavour
p942
Vmips64r6el
p943
sVkernel-arch
p944
Vmips
p945
sg187
(lp946
g189
ass(Vbuild
p947
g939
tp948
(dp949
Vimage-file
p950
Vvmlinux
p951
ss(Vimage
p952
g939
tp953
(dp954
Vinstall-stem
p955
Vvmlinux
p956
ss(Vdescription
p957
g939
NVmips64r6el
p958
tp959
(dp960
Vhardware
p961
VMIPS R6 (64 bit, little endian)
p962
sVhardware-long
p963
VMIPS R6 (64 bit, little endian)
p964
ss(Vimage
p965
g939
NVmips64r6el
p966
tp967
(dp968
Vconfigs
p969
(lp970
Vkernelarch-mips/config.boston
p971
aVkernelarch-mips/config.mips64r6
p972
ass(g220
g939
g189
tp973
(dp974
g223
(lp975
Vmips64r6el
p976
asg227
I01
ss(Vbase
p977
Vmipsel
p978
tp979
(dp980
Vkernel-arch
p981
Vmips
p982
sg187
(lp983
g189
ass(Vbuild
p984
g978
tp985
(dp986
Vimage-file
p987
Vvmlinuz
p988
ss(Vimage
p989
g978
tp990
(dp991
Vinstall-stem
p992
Vvmlinuz
p993
ss(Vdescription
p994
g978
NV4kc-malta
p995
tp996
(dp997
Vhardware
p998
VMIPS Malta
p999
sVhardware-long
p1000
VMIPS Malta boards
p1001
ss(Vimage
p1002
g978
NV4kc-malta
p1003
tp1004
(dp1005
Vconfigs
p1006
(lp1007
Vkernelarch-mips/config.malta
p1008
aVkernelarch-mips/config.mips32r2
p1009
ass(Vdescription
p1010
g978
NV5kc-malta
p1011
tp1012
(dp1013
Vhardware
p1014
VMIPS Malta (64-bit)
p1015
sVhardware-long
p1016
VMIPS Malta boards (64-bit)
p1017
ss(Vimage
p1018
g978
NV5kc-malta
p1019
tp1020
(dp1021
Vconfigs
p1022
(lp1023
Vkernelarch-mips/config.malta
p1024
aVkernelarch-mips/config.mips64r2
p1025
ass(Vdescription
p1026
g978
NVloongson-3
p1027
tp1028
(dp1029
Vhardware
p1030
VLoongson 3A/3B
p1031
sVhardware-long
p1032
VLoongson 3A or 3B based systems (e.g. from Loongson or Lemote)
p1033
ss(Vimage
p1034
g978
NVloongson-3
p1035
tp1036
(dp1037
Vconfigs
p1038
(lp1039
Vkernelarch-mips/config.loongson-3
p1040
ass(Vdescription
p1041
g978
NVocteon
p1042
tp1043
(dp1044
Vhardware
p1045
VOcteon
p1046
sVhardware-long
p1047
VCavium Networks Octeon
p1048
ss(Vbuild
p1049
g978
NVocteon
p1050
tp1051
(dp1052
Vimage-file
p1053
Vvmlinux
p1054
ss(Vimage
p1055
g978
NVocteon
p1056
tp1057
(dp1058
Vinstall-stem
p1059
Vvmlinux
p1060
sVconfigs
p1061
(lp1062
Vkernelarch-mips/config.octeon
p1063
ass(g220
g978
g189
tp1064
(dp1065
g223
(lp1066
V4kc-malta
p1067
aV5kc-malta
p1068
aVloongson-3
p1069
aVocteon
p1070
asg227
I01
ss(Vbase
p1071
Vmipsn32
p1072
tp1073
(dp1074
Vkernel-arch
p1075
Vmips
p1076
sVfeaturesets
p1077
(lp1078
ss(Vbase
p1079
Vmipsn32el
p1080
tp1081
(dp1082
Vkernel-arch
p1083
Vmips
p1084
sVfeaturesets
p1085
(lp1086
ss(Vbase
p1087
Vmipsn32r6
p1088
tp1089
(dp1090
Vkernel-arch
p1091
Vmips
p1092
sVfeaturesets
p1093
(lp1094
ss(Vbase
p1095
Vmipsn32r6el
p1096
tp1097
(dp1098
Vkernel-arch
p1099
Vmips
p1100
sVfeaturesets
p1101
(lp1102
ss(Vbase
p1103
Vmipsr6
p1104
tp1105
(dp1106
Vdefault-flavour
p1107
Vmips32r6
p1108
sVkernel-arch
p1109
Vmips
p1110
sg187
(lp1111
g189
ass(Vbuild
p1112
g1104
tp1113
(dp1114
Vimage-file
p1115
Vvmlinux
p1116
ss(Vimage
p1117
g1104
tp1118
(dp1119
Vinstall-stem
p1120
Vvmlinux
p1121
ss(Vdescription
p1122
g1104
NVmips32r6
p1123
tp1124
(dp1125
Vhardware
p1126
VMIPS R6 (32 bit, big endian)
p1127
sVhardware-long
p1128
VMIPS R6 (32 bit, big endian)
p1129
ss(Vimage
p1130
g1104
NVmips32r6
p1131
tp1132
(dp1133
Vconfigs
p1134
(lp1135
Vkernelarch-mips/config.boston
p1136
aVkernelarch-mips/config.mips32r6
p1137
ass(Vdescription
p1138
g1104
NVmips64r6
p1139
tp1140
(dp1141
Vhardware
p1142
VMIPS R6 (64 bit, big endian)
p1143
sVhardware-long
p1144
VMIPS R6 (64 bit, big endian)
p1145
ss(Vimage
p1146
g1104
NVmips64r6
p1147
tp1148
(dp1149
Vconfigs
p1150
(lp1151
Vkernelarch-mips/config.boston
p1152
aVkernelarch-mips/config.mips64r6
p1153
ass(g220
g1104
g189
tp1154
(dp1155
g223
(lp1156
Vmips32r6
p1157
aVmips64r6
p1158
asg227
I01
ss(Vbase
p1159
Vmipsr6el
p1160
tp1161
(dp1162
Vdefault-flavour
p1163
Vmips32r6el
p1164
sVkernel-arch
p1165
Vmips
p1166
sg187
(lp1167
g189
ass(Vbuild
p1168
g1160
tp1169
(dp1170
Vimage-file
p1171
Vvmlinux
p1172
ss(Vimage
p1173
g1160
tp1174
(dp1175
Vinstall-stem
p1176
Vvmlinux
p1177
ss(Vdescription
p1178
g1160
NVmips32r6el
p1179
tp1180
(dp1181
Vhardware
p1182
VMIPS R6 (32 bit, little endian)
p1183
sVhardware-long
p1184
VMIPS R6 (32 bit, little endian)
p1185
ss(Vimage
p1186
g1160
NVmips32r6el
p1187
tp1188
(dp1189
Vconfigs
p1190
(lp1191
Vkernelarch-mips/config.boston
p1192
aVkernelarch-mips/config.mips32r6
p1193
ass(Vdescription
p1194
g1160
NVmips64r6el
p1195
tp1196
(dp1197
Vhardware
p1198
VMIPS R6 (64 bit, little endian)
p1199
sVhardware-long
p1200
VMIPS R6 (64 bit, little endian)
p1201
ss(Vimage
p1202
g1160
NVmips64r6el
p1203
tp1204
(dp1205
Vconfigs
p1206
(lp1207
Vkernelarch-mips/config.boston
p1208
aVkernelarch-mips/config.mips64r6
p1209
ass(g220
g1160
g189
tp1210
(dp1211
g223
(lp1212
Vmips32r6el
p1213
aVmips64r6el
p1214
asg227
I01
ss(Vbase
p1215
Vpowerpc
p1216
tp1217
(dp1218
Vkernel-arch
p1219
Vpowerpc
p1220
sg187
(lp1221
g189
ass(Vbuild
p1222
g1216
tp1223
(dp1224
Vimage-file
p1225
Vvmlinux
p1226
sVvdso
p1227
I01
ss(Vimage
p1228
g1216
tp1229
(dp1230
Vconfigs
p1231
(lp1232
sVbootloaders
p1233
(lp1234
Vgrub-ieee1275
p1235
asVsuggests
p1236
(lp1237
Vmkvmlinuz
p1238
asVinstall-stem
p1239
Vvmlinux
p1240
ss(Vdescription
p1241
g1216
NVpowerpc
p1242
tp1243
(dp1244
Vhardware
p1245
Vuniprocessor 32-bit PowerPC
p1246
ss(Vdescription
p1247
g1216
NVpowerpc-smp
p1248
tp1249
(dp1250
Vhardware
p1251
Vmultiprocessor 32-bit PowerPC
p1252
ss(Vimage
p1253
g1216
NVpowerpc-smp
p1254
tp1255
(dp1256
Vconfigs
p1257
(lp1258
Vpowerpc/config.powerpc
p1259
aVpowerpc/config.powerpc-smp
p1260
ass(Vdescription
p1261
g1216
NVpowerpc64
p1262
tp1263
(dp1264
Vhardware
p1265
V64-bit PowerPC
p1266
ss(Vimage
p1267
g1216
NVpowerpc64
p1268
tp1269
(dp1270
Vconfigs
p1271
(lp1272
Vkernelarch-powerpc/config-arch-64
p1273
aVkernelarch-powerpc/config-arch-64-be
p1274
ass(g220
g1216
g189
tp1275
(dp1276
g223
(lp1277
Vpowerpc
p1278
aVpowerpc-smp
p1279
aVpowerpc64
p1280
asg227
I01
ss(Vbase
p1281
Vppc64
p1282
tp1283
(dp1284
Vdefault-flavour
p1285
Vpowerpc64
p1286
sVkernel-arch
p1287
Vpowerpc
p1288
sg187
(lp1289
g189
ass(Vbuild
p1290
g1282
tp1291
(dp1292
Vimage-file
p1293
Vvmlinux
p1294
sVvdso
p1295
I01
ss(Vimage
p1296
g1282
tp1297
(dp1298
Vconfigs
p1299
(lp1300
sVbootloaders
p1301
(lp1302
Vgrub-ieee1275
p1303
asVsuggests
p1304
(lp1305
Vmkvmlinuz
p1306
asVinstall-stem
p1307
Vvmlinux
p1308
ss(Vdescription
p1309
g1282
NVpowerpc64
p1310
tp1311
(dp1312
Vhardware
p1313
V64-bit PowerPC
p1314
ss(Vimage
p1315
g1282
NVpowerpc64
p1316
tp1317
(dp1318
Vconfigs
p1319
(lp1320
Vkernelarch-powerpc/config-arch-64
p1321
aVkernelarch-powerpc/config-arch-64-be
p1322
ass(g220
g1282
g189
tp1323
(dp1324
g223
(lp1325
Vpowerpc64
p1326
asg227
I01
ss(Vbase
p1327
Vppc64el
p1328
tp1329
(dp1330
Vdefault-flavour
p1331
Vpowerpc64le
p1332
sVkernel-arch
p1333
Vpowerpc
p1334
sg187
(lp1335
g189
ass(Vbuild
p1336
g1328
tp1337
(dp1338
Vimage-file
p1339
Vvmlinux
p1340
sVvdso
p1341
I01
ss(Vimage
p1342
g1328
tp1343
(dp1344
Vconfigs
p1345
(lp1346
sVbootloaders
p1347
(lp1348
Vgrub-ieee1275
p1349
asVsuggests
p1350
(lp1351
Vmkvmlinuz
p1352
asVinstall-stem
p1353
Vvmlinux
p1354
ss(Vdescription
p1355
g1328
NVpowerpc64le
p1356
tp1357
(dp1358
Vhardware
p1359
VLittle-endian 64-bit PowerPC
p1360
ss(Vimage
p1361
g1328
NVpowerpc64le
p1362
tp1363
(dp1364
Vconfigs
p1365
(lp1366
Vkernelarch-powerpc/config-arch-64
p1367
aVkernelarch-powerpc/config-arch-64-le
p1368
ass(g220
g1328
g189
tp1369
(dp1370
g223
(lp1371
Vpowerpc64le
p1372
asg227
I01
ss(Vbase
p1373
Vriscv64
p1374
tp1375
(dp1376
Vkernel-arch
p1377
Vriscv
p1378
sVfeaturesets
p1379
(lp1380
Vnone
p1381
ass(Vbuild
p1382
g1374
tp1383
(dp1384
Vimage-file
p1385
Varch/riscv/boot/Image
p1386
sVvdso
p1387
I01
ss(Vimage
p1388
g1374
tp1389
(dp1390
Vinstall-stem
p1391
Vvmlinux
p1392
ss(Vdescription
p1393
g1374
NVriscv64
p1394
tp1395
(dp1396
Vhardware
p1397
V64-bit RISC-V platforms
p1398
sVhardware-long
p1399
V64-bit RISC-V platforms
p1400
ss(Vbase
p1401
g1374
Vnone
p1402
tp1403
(dp1404
Vflavours
p1405
(lp1406
Vriscv64
p1407
asVdefault-flavour
p1408
Vriscv64
p1409
ss(Vbase
p1410
Vs390
p1411
tp1412
(dp1413
Vkernel-arch
p1414
Vs390
p1415
sVfeaturesets
p1416
(lp1417
ss(Vbase
p1418
Vs390x
p1419
tp1420
(dp1421
Vdefault-flavour
p1422
Vs390x
p1423
sVkernel-arch
p1424
Vs390
p1425
sg187
(lp1426
g189
ass(Vbuild
p1427
g1419
tp1428
(dp1429
Vimage-file
p1430
Varch/s390/boot/bzImage
p1431
sVvdso
p1432
I01
ss(Vimage
p1433
g1419
tp1434
(dp1435
Vbootloaders
p1436
(lp1437
Vs390-tools
p1438
asVinstall-stem
p1439
Vvmlinuz
p1440
ss(Vrelations
p1441
g1419
tp1442
(dp1443
Vheaders%gcc-10
p1444
Vlinux-compiler-gcc-10-s390
p1445
ss(Vdescription
p1446
g1419
NVs390x
p1447
tp1448
(dp1449
Vhardware
p1450
VIBM zSeries
p1451
ss(g220
g1419
g189
tp1452
(dp1453
g223
(lp1454
Vs390x
p1455
asg227
I01
ss(Vbase
p1456
Vsh3
p1457
tp1458
(dp1459
Vkernel-arch
p1460
Vsh
p1461
sVfeaturesets
p1462
(lp1463
ss(Vbase
p1464
Vsh4
p1465
tp1466
(dp1467
Vkernel-arch
p1468
Vsh
p1469
sg187
(lp1470
g189
ass(Vbuild
p1471
g1465
tp1472
(dp1473
Vimage-file
p1474
Varch/sh/boot/zImage
p1475
ss(Vimage
p1476
g1465
tp1477
(dp1478
Vinstall-stem
p1479
Vvmlinuz
p1480
ss(Vdescription
p1481
g1465
NVsh7751r
p1482
tp1483
(dp1484
Vhardware
p1485
Vsh7751r
p1486
sVhardware-long
p1487
VRenesas SH7751R R2D plus board
p1488
ss(Vdescription
p1489
g1465
NVsh7785lcr
p1490
tp1491
(dp1492
Vhardware
p1493
Vsh7785lcr
p1494
sVhardware-long
p1495
VRenesas SH7785 reference board
p1496
ss(Vimage
p1497
g1465
NVsh7785lcr
p1498
tp1499
(dp1500
Vrecommends
p1501
(lp1502
Vu-boot-tools
p1503
asVcheck-size
p1504
I4194304
ss(g220
g1465
g189
tp1505
(dp1506
g223
(lp1507
Vsh7751r
p1508
aVsh7785lcr
p1509
asg227
I01
ss(Vbase
p1510
Vsparc
p1511
tp1512
(dp1513
Vkernel-arch
p1514
Vsparc
p1515
sVfeaturesets
p1516
(lp1517
ss(Vbase
p1518
Vsparc64
p1519
tp1520
(dp1521
Vdefault-flavour
p1522
Vsparc64-smp
p1523
sVkernel-arch
p1524
Vsparc
p1525
sg187
(lp1526
g189
ass(Vbuild
p1527
g1519
tp1528
(dp1529
Vimage-file
p1530
Vvmlinux
p1531
ss(Vimage
p1532
g1519
tp1533
(dp1534
Vconfigs
p1535
(lp1536
sVbootloaders
p1537
(lp1538
Vgrub-ieee1275
p1539
asVsuggests
p1540
(lp1541
Vfdutils
p1542
asVinstall-stem
p1543
Vvmlinux
p1544
ss(Vdescription
p1545
g1519
NVsparc64
p1546
tp1547
(dp1548
Vhardware
p1549
Vuniprocessor 64-bit UltraSPARC
p1550
ss(Vimage
p1551
g1519
NVsparc64
p1552
tp1553
(dp1554
Vconfigs
p1555
(lp1556
Vkernelarch-sparc/config-up
p1557
ass(Vdescription
p1558
g1519
NVsparc64-smp
p1559
tp1560
(dp1561
Vhardware
p1562
Vmultiprocessor 64-bit UltraSPARC
p1563
ss(Vimage
p1564
g1519
NVsparc64-smp
p1565
tp1566
(dp1567
Vconfigs
p1568
(lp1569
Vkernelarch-sparc/config-smp
p1570
ass(g220
g1519
g189
tp1571
(dp1572
g223
(lp1573
Vsparc64
p1574
aVsparc64-smp
p1575
asg227
I01
ss(Vbase
p1576
Vx32
p1577
tp1578
(dp1579
Vkernel-arch
p1580
Vx86
p1581
sVfeaturesets
p1582
(lp1583
ss(Vabi
p1584
NVrt
p1585
tp1586
(dp1587
Vignore-changes
p1588
(lp1589
V*
p1590
ass(Vdescription
p1591
Ng1585
tp1592
(dp1593
Vpart-long-rt
p1594
VThis kernel includes the PREEMPT_RT realtime patch set.
p1595
sVpart-short-rt
p1596
VPREEMPT_RT
p1597
sVparts
p1598
(lp1599
Vrt
p1600
ass(Vversion
p1601
tp1602
(dp1603
Vsource
p1604
V5.10.19-1apertis1
p1605
sVupstream
p1606
V5.10
p1607
sVabiname_base
p1608
V5.10.0
p1609
sVabiname
p1610
V5.10.0-4
p1611
ss.