cdebian_linux.config
ConfigCore
p0
(tRp1
(Vabi
p2
tp3
(dp4
Vabiname
p5
V1
p6
sVignore-changes
p7
(lp8
V__cpuhp_*
p9
aVbpf_analyzer
p10
aVcxl_*
p11
aVdax_flush
p12
aVieee80211_nullfunc_get
p13
aVinet_add_protocol
p14
aVinet_del_protocol
p15
aViommu_device_*
p16
aVmm_iommu_*
p17
aVmv_mbus_*
p18
aVperf_*
p19
aVregister_cxl_calls
p20
aVregister_key_type
p21
aVunregister_cxl_calls
p22
aV*_hw_breakpoint
p23
aVmodule:drivers/crypto/ccp/*
p24
aVmodule:drivers/hv/*
p25
aVmodule:drivers/gpu/drm/sun4i/*
p26
aVmodule:drivers/iio/**
p27
aVmodule:drivers/misc/cxl/*
p28
aVmodule:drivers/mtd/nand/*
p29
aVmodule:drivers/net/ethernet/**
p30
aVmodule:drivers/net/wireless/**
p31
aVmodule:drivers/nvdimm/*
p32
aVmodule:drivers/nvme/**
p33
aVmodule:drivers/power/supply/bq27xxx_battery
p34
aVmodule:drivers/scsi/cxgbi/*
p35
aVmodule:drivers/scsi/libiscs*
p36
aVmodule:drivers/scsi/qla2xxx/qla2xxx
p37
aVmodule:drivers/scsi/ufs/*
p38
aVmodule:drivers/target/**
p39
aVmodule:drivers/usb/chipidea/**
p40
aVmodule:drivers/usb/gadget/**
p41
aVmodule:drivers/usb/host/**
p42
aVmodule:drivers/usb/musb/**
p43
aVmodule:fs/nfs/**
p44
aVmodule:net/ceph/libceph
p45
aVmodule:net/l2tp/**
p46
aVmodule:net/rxrpc/rxrpc
p47
aVmodule:net/sctp/**
p48
aVmodule:sound/core/seq/**
p49
aVmodule:sound/firewire/snd-firewire-lib
p50
aVmodule:sound/pci/hda/*
p51
aVbtree_*
p52
aVvisitor*
p53
aVcan_rx_register
p54
aVip6_xmit
p55
aVmodule:net/dccp/dccp
p56
aVmodule:net/rds/rds
p57
aVdevfreq_*
p58
aVdevm_devfreq_*
p59
aVupdate_devfreq
p60
aVmodule:drivers/infiniband/**
p61
aVacpi_ec_add_query_handler
p62
aVacpi_ec_remove_query_handler
p63
aVfirst_ec
p64
aVdebugfs_create_automount
p65
aVmodule:drivers/iio/imu/inv_mpu6050/*
p66
aVdrm_crtc_accurate_vblank_count
p67
aVacpi_nfit_desc_init
p68
aVacpi_nfit_init
p69
aVloop_register_transfer
p70
aVxen_xlate_*
p71
aVnf_nat_masquerade_ipv4_register_notifier
p72
aVnf_nat_masquerade_ipv6_register_notifier
p73
aVmodule:drivers/scsi/hisi_sas/*
p74
aV__gfn_*
p75
aV__kvmhv_*
p76
aV__kvm_*
p77
aV__xive_vm_h_*
p78
aVgfn_*
p79
aVh_ipi_redirect
p80
aVhalt_poll_ns*
p81
aVkvm_*
p82
aVkvmhv_*
p83
aVkvmppc_*
p84
aVmark_page_dirty
p85
aVvcpu_*
p86
aVmodule:arch/powerpc/kvm/*
p87
aVmodule:arch/s390/kvm/*
p88
aVmodule:arch/x86/kvm/*
p89
ass(Vbase
p90
tp91
(dp92
Varches
p93
(lp94
Valpha
p95
aVamd64
p96
aVarm64
p97
aVarm64ilp32
p98
aVarmel
p99
aVarmhf
p100
aVhppa
p101
aVi386
p102
aVia64
p103
aVm68k
p104
aVmips
p105
aVmips64
p106
aVmips64el
p107
aVmips64r6
p108
aVmips64r6el
p109
aVmipsel
p110
aVmipsn32
p111
aVmipsn32el
p112
aVmipsn32r6
p113
aVmipsn32r6el
p114
aVmipsr6
p115
aVmipsr6el
p116
aVpowerpc
p117
aVppc64
p118
aVppc64el
p119
aVriscv64
p120
aVs390
p121
aVs390x
p122
aVsh3
p123
aVsh4
p124
aVsparc
p125
aVsparc64
p126
aVx32
p127
asVcompiler
p128
Vgcc-10
p129
sVfeaturesets
p130
(lp131
Vnone
p132
aVrt
p133
ass(Vbuild
p134
tp135
(dp136
Vdebug-info
p137
I01
sVsigned-code
p138
I00
ss(Vbase
p139
NVrt
p140
tp141
(dp142
Venabled
p143
I01
ss(Vdescription
p144
tp145
(dp146
Vpart-long-up
p147
VThis kernel is not suitable for SMP (multi-processor,\u000amulti-core or hyper-threaded) systems.
p148
ss(Vimage
p149
tp150
(dp151
Vinitramfs-generators
p152
(lp153
Vinitramfs-tools
p154
aVinitramfs-fallback
p155
asVbreaks
p156
(lp157
Vwireless-regdb (<< 2019.06.03-1~)
p158
asVrecommends
p159
(lp160
Vapparmor
p161
ass(Vrelations
p162
tp163
(dp164
Vgcc-10
p165
Vgcc-10 <!stage1 !cross !pkg.linux.nokernel>, gcc-10-@gnu-type-package@ <!stage1 cross !pkg.linux.nokernel>
p166
sVinitramfs-fallback
p167
Vlinux-initramfs-tool
p168
sVinitramfs-tools
p169
Vinitramfs-tools (>= 0.120+deb8u2)
p170
ss(Vbase
p171
Valpha
p172
tp173
(dp174
Vdefault-flavour
p175
Valpha-smp
p176
sVkernel-arch
p177
Valpha
p178
sVfeaturesets
p179
(lp180
Vnone
p181
ass(Vbuild
p182
g172
tp183
(dp184
Vimage-file
p185
Varch/alpha/boot/vmlinux.gz
p186
ss(Vimage
p187
g172
tp188
(dp189
Vsuggests
p190
(lp191
Vaboot
p192
aVfdutils
p193
asVinstall-stem
p194
Vvmlinuz
p195
ss(Vdescription
p196
g172
NValpha-generic
p197
tp198
(dp199
Vhardware
p200
VAlpha
p201
sVhardware-long
p202
VDEC Alpha systems with extended kernel start address (Wildfire, Titan, Marvel)
p203
ss(Vdescription
p204
g172
NValpha-smp
p205
tp206
(dp207
Vhardware
p208
VAlpha SMP
p209
sVhardware-long
p210
VDEC Alpha SMP systems with extended kernel start address (Wildfire, Titan, Marvel)
p211
ss(Vbase
p212
g172
g181
tp213
(dp214
Vflavours
p215
(lp216
Valpha-generic
p217
aValpha-smp
p218
asVimplicit-flavour
p219
I01
ss(Vbase
p220
Vamd64
p221
tp222
(dp223
Vfeaturesets
p224
(lp225
Vnone
p226
aVrt
p227
asVkernel-arch
p228
Vx86
p229
ss(Vbuild
p230
g221
tp231
(dp232
Vimage-file
p233
Varch/x86/boot/bzImage
p234
sVsigned-code
p235
I01
sVvdso
p236
I01
ss(Vimage
p237
g221
tp238
(dp239
Vbootloaders
p240
(lp241
Vgrub-pc
p242
aVgrub-efi-amd64
p243
aVextlinux
p244
asVinstall-stem
p245
Vvmlinuz
p246
sVbreaks
p247
(lp248
Vxserver-xorg-input-vmmouse (<< 1:13.0.99)
p249
ass(Vrelations
p250
g221
tp251
(dp252
Vheaders%gcc-10
p253
Vlinux-compiler-gcc-10-x86
p254
ss(Vdescription
p255
g221
NVamd64
p256
tp257
(dp258
Vhardware
p259
V64-bit PCs
p260
sVhardware-long
p261
VPCs with AMD64, Intel 64 or VIA Nano processors
p262
ss(Vdescription
p263
g221
NVcloud-amd64
p264
tp265
(dp266
Vhardware
p267
Vx86-64 cloud
p268
sVhardware-long
p269
Vcloud platforms including Amazon EC2, Microsoft Azure, and Google Compute Engine
p270
ss(Vbase
p271
g221
Vnone
p272
tp273
(dp274
Vflavours
p275
(lp276
Vamd64
p277
aVcloud-amd64
p278
asVdefault-flavour
p279
Vamd64
p280
ss(Vimage
p281
g221
g272
Vcloud-amd64
p282
tp283
(dp284
Vconfigs
p285
(lp286
Vconfig.cloud
p287
aVamd64/config.cloud-amd64
p288
ass(Vbase
p289
g221
Vrt
p290
tp291
(dp292
Vflavours
p293
(lp294
Vamd64
p295
ass(Vbase
p296
Varm64
p297
tp298
(dp299
Vcross-compile-compat
p300
Varm-linux-gnueabihf-
p301
sVkernel-arch
p302
Varm64
p303
sVfeaturesets
p304
(lp305
Vnone
p306
aVrt
p307
ass(Vbuild
p308
g297
tp309
(dp310
Vimage-file
p311
Varch/arm64/boot/Image
p312
sVsigned-code
p313
I01
sVvdso
p314
I01
ss(Vimage
p315
g297
tp316
(dp317
Vinstall-stem
p318
Vvmlinuz
p319
sVbreaks
p320
(lp321
Vlibmozjs185-1.0
p322
aVlibmozjs-24-0 (<< 24.2.0-5.1~)
p323
ass(Vdescription
p324
g297
NVarm64
p325
tp326
(dp327
Vhardware
p328
V64-bit ARMv8 machines
p329
ss(Vdescription
p330
g297
NVcloud-arm64
p331
tp332
(dp333
Vhardware
p334
Varm64 cloud
p335
sVhardware-long
p336
Vcloud platforms supporting arm64 virtual machines
p337
ss(Vimage
p338
g297
NVarm64
p339
tp340
(dp341
s(Vrelations
p342
g297
tp343
(dp344
Vgcc-10
p345
Vgcc-10 <!stage1 !cross !pkg.linux.nokernel>, gcc-10-aarch64-linux-gnu <!stage1 cross !pkg.linux.nokernel>, gcc-arm-linux-gnueabihf <!stage1 !pkg.linux.nokernel>
p346
sVheaders%gcc-10
p347
Vgcc-10
p348
ss(Vbase
p349
g297
Vnone
p350
tp351
(dp352
Vflavours
p353
(lp354
Varm64
p355
aVcloud-arm64
p356
asVdefault-flavour
p357
Varm64
p358
ss(Vimage
p359
g297
g350
Vcloud-arm64
p360
tp361
(dp362
Vconfigs
p363
(lp364
Vconfig.cloud
p365
aVarm64/config.cloud-arm64
p366
ass(Vbase
p367
g297
Vrt
p368
tp369
(dp370
Vflavours
p371
(lp372
Varm64
p373
ass(Vbase
p374
Varm64ilp32
p375
tp376
(dp377
Vkernel-arch
p378
Varm64
p379
sVfeaturesets
p380
(lp381
ss(Vbase
p382
Varmel
p383
tp384
(dp385
Vkernel-arch
p386
Varm
p387
sg179
(lp388
g181
ass(Vbuild
p389
g383
tp390
(dp391
Vimage-file
p392
Varch/arm/boot/zImage
p393
sVuncompressed-image-file
p394
Varch/arm/boot/Image
p395
ss(Vimage
p396
g383
tp397
(dp398
Vinstall-stem
p399
Vvmlinuz
p400
ss(Vrelations
p401
g383
tp402
(dp403
Vheaders%gcc-10
p404
Vlinux-compiler-gcc-10-arm
p405
ss(Vdescription
p406
g383
NVmarvell
p407
tp408
(dp409
Vhardware
p410
VMarvell Kirkwood/Orion
p411
sVhardware-long
p412
VMarvell Kirkwood and Orion based systems (https://wiki.debian.org/ArmEabiPort#Supported_hardware)
p413
ss(Vdescription
p414
g383
NVrpi
p415
tp416
(dp417
Vhardware
p418
VRaspberry Pi and Pi Zero
p419
sVhardware-long
p420
VRaspberry Pi, Raspberry Pi Zero based systems
p421
ss(Vimage
p422
g383
NVmarvell
p423
tp424
(dp425
Vrecommends
p426
(lp427
Vu-boot-tools
p428
asVcheck-size
p429
I2729712
sVcheck-size-with-dtb
p430
I01
sVbreaks
p431
(lp432
Vflash-kernel (<< 3.57~)
p433
ass(g212
g383
g181
tp434
(dp435
g215
(lp436
Vmarvell
p437
aVrpi
p438
asg219
I01
ss(Vbase
p439
Varmhf
p440
tp441
(dp442
Vfeaturesets
p443
(lp444
Vnone
p445
aVrt
p446
asVkernel-arch
p447
Varm
p448
ss(Vbuild
p449
g440
tp450
(dp451
Vimage-file
p452
Varch/arm/boot/zImage
p453
sVvdso
p454
I01
ss(Vimage
p455
g440
tp456
(dp457
Vinstall-stem
p458
Vvmlinuz
p459
ss(Vrelations
p460
g440
tp461
(dp462
Vheaders%gcc-10
p463
Vlinux-compiler-gcc-10-arm
p464
ss(Vdescription
p465
g440
NVarmmp
p466
tp467
(dp468
Vhardware
p469
VARMv7 multiplatform compatible SoCs
p470
sVhardware-long
p471
VARMv7 multiplatform kernel. See\u000ahttps://wiki.debian.org/DebianKernel/ARMMP for details of supported\u000aplatforms
p472
ss(Vdescription
p473
g440
NVarmmp-lpae
p474
tp475
(dp476
Vhardware
p477
VARMv7 multiplatform compatible SoCs supporting LPAE
p478
sVhardware-long
p479
VARMv7 multiplatform kernel supporting LPAE. See\u000ahttps://wiki.debian.org/DebianKernel/ARMMP for details of supported\u000aplatforms.
p480
ss(Vbase
p481
g440
Vnone
p482
tp483
(dp484
Vflavours
p485
(lp486
Varmmp
p487
aVarmmp-lpae
p488
asVdefault-flavour
p489
Varmmp
p490
ss(Vbase
p491
g440
Vrt
p492
tp493
(dp494
Vflavours
p495
(lp496
Varmmp
p497
ass(Vbase
p498
Vhppa
p499
tp500
(dp501
Vdefault-flavour
p502
Vparisc
p503
sVkernel-arch
p504
Vparisc
p505
sg179
(lp506
g181
ass(Vbuild
p507
g499
tp508
(dp509
Vimage-file
p510
Varch/parisc/boot/bzImage
p511
sVdebug-info
p512
I00
ss(Vimage
p513
g499
tp514
(dp515
Vsuggests
p516
(lp517
Vpalo
p518
asVinstall-stem
p519
Vvmlinuz
p520
ss(Vdescription
p521
g499
NVparisc
p522
tp523
(dp524
Vhardware
p525
V32-bit PA-RISC
p526
sVhardware-long
p527
VHP PA-RISC 32-bit systems with max 4 GB RAM
p528
ss(Vbase
p529
g499
NVparisc64
p530
tp531
(dp532
Vcflags
p533
V-fno-cse-follow-jumps
p534
sVoverride-host-type
p535
Vhppa64-linux-gnu
p536
ss(Vdescription
p537
g499
NVparisc64
p538
tp539
(dp540
Vhardware
p541
V64-bit PA-RISC
p542
sVhardware-long
p543
VHP PA-RISC 64-bit systems with support for more than 4 GB RAM
p544
ss(Vrelations
p545
g499
tp546
(dp547
Vgcc-10
p548
Vgcc-10 <!stage1 !cross !pkg.linux.nokernel>, gcc-10-hppa-linux-gnu <!stage1 cross !pkg.linux.nokernel>, binutils-hppa64-linux-gnu <!stage1 !pkg.linux.nokernel>, gcc-10-hppa64-linux-gnu <!stage1 !pkg.linux.nokernel>
p549
ss(g212
g499
g181
tp550
(dp551
g215
(lp552
Vparisc
p553
aVparisc64
p554
asg219
I01
ss(Vbase
p555
Vi386
p556
tp557
(dp558
Vfeaturesets
p559
(lp560
Vnone
p561
aVrt
p562
asVkernel-arch
p563
Vx86
p564
ss(Vbuild
p565
g556
tp566
(dp567
Vimage-file
p568
Varch/x86/boot/bzImage
p569
sVsigned-code
p570
I01
sVvdso
p571
I01
ss(Vdescription
p572
g556
tp573
(dp574
Vpart-long-pae
p575
VThis kernel requires PAE (Physical Address Extension).\u000aThis feature is supported by the Intel Pentium Pro/II/III/4/4M/D, Xeon,\u000aCore and Atom; AMD Geode NX, Athlon (K7), Duron, Opteron, Sempron,\u000aTurion or Phenom; Transmeta Efficeon; VIA C7; and some other processors.
p576
ss(Vimage
p577
g556
tp578
(dp579
Vbootloaders
p580
(lp581
Vgrub-pc
p582
aVgrub-efi-ia32
p583
aVextlinux
p584
asVinstall-stem
p585
Vvmlinuz
p586
sVbreaks
p587
(lp588
Vxserver-xorg-input-vmmouse (<< 1:13.0.99)
p589
ass(Vrelations
p590
g556
tp591
(dp592
Vheaders%gcc-10
p593
Vlinux-compiler-gcc-10-x86
p594
ss(Vdescription
p595
g556
NV686
p596
tp597
(dp598
Vhardware
p599
Volder PCs
p600
sVhardware-long
p601
VPCs with one or more processors not supporting PAE
p602
ss(Vdescription
p603
g556
NV686-pae
p604
tp605
(dp606
Vhardware
p607
Vmodern PCs
p608
sVhardware-long
p609
VPCs with one or more processors supporting PAE
p610
sVparts
p611
(lp612
Vpae
p613
ass(Vbase
p614
g556
Vnone
p615
tp616
(dp617
Vflavours
p618
(lp619
V686
p620
aV686-pae
p621
asVdefault-flavour
p622
V686-pae
p623
ss(Vbase
p624
g556
Vrt
p625
tp626
(dp627
Vflavours
p628
(lp629
V686-pae
p630
ass(Vbase
p631
Via64
p632
tp633
(dp634
Vdefault-flavour
p635
Vitanium
p636
sVkernel-arch
p637
Via64
p638
sg179
(lp639
g181
ass(Vbuild
p640
g632
tp641
(dp642
Vimage-file
p643
Vvmlinux.gz
p644
ss(Vimage
p645
g632
tp646
(dp647
Vbootloaders
p648
(lp649
Vgrub-efi-ia64
p650
asVinstall-stem
p651
Vvmlinuz
p652
ss(Vdescription
p653
g632
NVitanium
p654
tp655
(dp656
Vhardware
p657
VItanium (Merced)
p658
sVhardware-long
p659
Vsystems with original Itanium (Merced) processors
p660
ss(Vdescription
p661
g632
NVmckinley
p662
tp663
(dp664
Vhardware
p665
VItanium 2+
p666
sVhardware-long
p667
Vsystems with Itanium 2 or 9300/9500/9700-series processors
p668
ss(g212
g632
g181
tp669
(dp670
g215
(lp671
Vitanium
p672
aVmckinley
p673
asg219
I01
ss(Vbase
p674
Vm68k
p675
tp676
(dp677
Vcflags
p678
V-ffreestanding
p679
sVdefault-flavour
p680
Vm68k
p681
sVkernel-arch
p682
Vm68k
p683
sg179
(lp684
g181
ass(Vbuild
p685
g675
tp686
(dp687
Vimage-file
p688
Vvmlinux
p689
ss(Vimage
p690
g675
tp691
(dp692
Vsuggests
p693
(lp694
Vvmelilo
p695
aVfdutils
p696
asVinstall-stem
p697
Vvmlinux
p698
ss(Vdescription
p699
g675
NVm68k
p700
tp701
(dp702
Vhardware
p703
VMotorola MC68020+ family
p704
ss(g212
g675
g181
tp705
(dp706
g215
(lp707
Vm68k
p708
asg219
I01
ss(Vbase
p709
Vmips
p710
tp711
(dp712
Vkernel-arch
p713
Vmips
p714
sg179
(lp715
g181
ass(Vbuild
p716
g710
tp717
(dp718
Vimage-file
p719
Vvmlinuz
p720
ss(Vimage
p721
g710
tp722
(dp723
Vinstall-stem
p724
Vvmlinuz
p725
ss(Vdescription
p726
g710
NV4kc-malta
p727
tp728
(dp729
Vhardware
p730
VMIPS Malta
p731
sVhardware-long
p732
VMIPS Malta boards
p733
ss(Vimage
p734
g710
NV4kc-malta
p735
tp736
(dp737
Vconfigs
p738
(lp739
Vkernelarch-mips/config.malta
p740
aVkernelarch-mips/config.mips32r2
p741
ass(Vdescription
p742
g710
NV5kc-malta
p743
tp744
(dp745
Vhardware
p746
VMIPS Malta (64-bit)
p747
sVhardware-long
p748
VMIPS Malta boards (64-bit)
p749
ss(Vimage
p750
g710
NV5kc-malta
p751
tp752
(dp753
Vconfigs
p754
(lp755
Vkernelarch-mips/config.malta
p756
aVkernelarch-mips/config.mips64r2
p757
ass(Vdescription
p758
g710
NVocteon
p759
tp760
(dp761
Vhardware
p762
VOcteon
p763
sVhardware-long
p764
VCavium Networks Octeon
p765
ss(Vbuild
p766
g710
NVocteon
p767
tp768
(dp769
Vimage-file
p770
Vvmlinux
p771
ss(Vimage
p772
g710
NVocteon
p773
tp774
(dp775
Vinstall-stem
p776
Vvmlinux
p777
sVconfigs
p778
(lp779
Vkernelarch-mips/config.octeon
p780
ass(g212
g710
g181
tp781
(dp782
g215
(lp783
V4kc-malta
p784
aV5kc-malta
p785
aVocteon
p786
asg219
I01
ss(Vbase
p787
Vmips64
p788
tp789
(dp790
Vkernel-arch
p791
Vmips
p792
sg179
(lp793
g181
ass(Vbuild
p794
g788
tp795
(dp796
Vimage-file
p797
Vvmlinuz
p798
ss(Vimage
p799
g788
tp800
(dp801
Vinstall-stem
p802
Vvmlinuz
p803
ss(Vdescription
p804
g788
NV5kc-malta
p805
tp806
(dp807
Vhardware
p808
VMIPS Malta
p809
sVhardware-long
p810
VMIPS Malta boards
p811
ss(Vimage
p812
g788
NV5kc-malta
p813
tp814
(dp815
Vconfigs
p816
(lp817
Vkernelarch-mips/config.malta
p818
aVkernelarch-mips/config.mips64r2
p819
ass(Vdescription
p820
g788
NVocteon
p821
tp822
(dp823
Vhardware
p824
VOcteon
p825
sVhardware-long
p826
VCavium Networks Octeon
p827
ss(Vbuild
p828
g788
NVocteon
p829
tp830
(dp831
Vimage-file
p832
Vvmlinux
p833
ss(Vimage
p834
g788
NVocteon
p835
tp836
(dp837
Vinstall-stem
p838
Vvmlinux
p839
sVconfigs
p840
(lp841
Vkernelarch-mips/config.octeon
p842
ass(g212
g788
g181
tp843
(dp844
g215
(lp845
V5kc-malta
p846
aVocteon
p847
asg219
I01
ss(Vbase
p848
Vmips64el
p849
tp850
(dp851
Vkernel-arch
p852
Vmips
p853
sg179
(lp854
g181
ass(Vbuild
p855
g849
tp856
(dp857
Vimage-file
p858
Vvmlinuz
p859
ss(Vimage
p860
g849
tp861
(dp862
Vinstall-stem
p863
Vvmlinuz
p864
ss(Vdescription
p865
g849
NV5kc-malta
p866
tp867
(dp868
Vhardware
p869
VMIPS Malta
p870
sVhardware-long
p871
VMIPS Malta boards
p872
ss(Vimage
p873
g849
NV5kc-malta
p874
tp875
(dp876
Vconfigs
p877
(lp878
Vkernelarch-mips/config.malta
p879
aVkernelarch-mips/config.mips64r2
p880
ass(Vdescription
p881
g849
NVloongson-3
p882
tp883
(dp884
Vhardware
p885
VLoongson 3A/3B
p886
sVhardware-long
p887
VLoongson 3A or 3B based systems (e.g. from Loongson or Lemote)
p888
ss(Vimage
p889
g849
NVloongson-3
p890
tp891
(dp892
Vconfigs
p893
(lp894
Vkernelarch-mips/config.loongson-3
p895
ass(Vdescription
p896
g849
NVocteon
p897
tp898
(dp899
Vhardware
p900
VOcteon
p901
sVhardware-long
p902
VCavium Networks Octeon
p903
ss(Vbuild
p904
g849
NVocteon
p905
tp906
(dp907
Vimage-file
p908
Vvmlinux
p909
ss(Vimage
p910
g849
NVocteon
p911
tp912
(dp913
Vinstall-stem
p914
Vvmlinux
p915
sVconfigs
p916
(lp917
Vkernelarch-mips/config.octeon
p918
ass(g212
g849
g181
tp919
(dp920
g215
(lp921
V5kc-malta
p922
aVloongson-3
p923
aVocteon
p924
asg219
I01
ss(Vbase
p925
Vmips64r6
p926
tp927
(dp928
Vdefault-flavour
p929
Vmips64r6
p930
sVkernel-arch
p931
Vmips
p932
sg179
(lp933
g181
ass(Vbuild
p934
g926
tp935
(dp936
Vimage-file
p937
Vvmlinux
p938
ss(Vimage
p939
g926
tp940
(dp941
Vinstall-stem
p942
Vvmlinux
p943
ss(Vdescription
p944
g926
NVmips64r6
p945
tp946
(dp947
Vhardware
p948
VMIPS R6 (64 bit, big endian)
p949
sVhardware-long
p950
VMIPS R6 (64 bit, big endian)
p951
ss(Vimage
p952
g926
NVmips64r6
p953
tp954
(dp955
Vconfigs
p956
(lp957
Vkernelarch-mips/config.boston
p958
aVkernelarch-mips/config.mips64r6
p959
ass(g212
g926
g181
tp960
(dp961
g215
(lp962
Vmips64r6
p963
asg219
I01
ss(Vbase
p964
Vmips64r6el
p965
tp966
(dp967
Vdefault-flavour
p968
Vmips64r6el
p969
sVkernel-arch
p970
Vmips
p971
sg179
(lp972
g181
ass(Vbuild
p973
g965
tp974
(dp975
Vimage-file
p976
Vvmlinux
p977
ss(Vimage
p978
g965
tp979
(dp980
Vinstall-stem
p981
Vvmlinux
p982
ss(Vdescription
p983
g965
NVmips64r6el
p984
tp985
(dp986
Vhardware
p987
VMIPS R6 (64 bit, little endian)
p988
sVhardware-long
p989
VMIPS R6 (64 bit, little endian)
p990
ss(Vimage
p991
g965
NVmips64r6el
p992
tp993
(dp994
Vconfigs
p995
(lp996
Vkernelarch-mips/config.boston
p997
aVkernelarch-mips/config.mips64r6
p998
ass(g212
g965
g181
tp999
(dp1000
g215
(lp1001
Vmips64r6el
p1002
asg219
I01
ss(Vbase
p1003
Vmipsel
p1004
tp1005
(dp1006
Vkernel-arch
p1007
Vmips
p1008
sg179
(lp1009
g181
ass(Vbuild
p1010
g1004
tp1011
(dp1012
Vimage-file
p1013
Vvmlinuz
p1014
ss(Vimage
p1015
g1004
tp1016
(dp1017
Vinstall-stem
p1018
Vvmlinuz
p1019
ss(Vdescription
p1020
g1004
NV4kc-malta
p1021
tp1022
(dp1023
Vhardware
p1024
VMIPS Malta
p1025
sVhardware-long
p1026
VMIPS Malta boards
p1027
ss(Vimage
p1028
g1004
NV4kc-malta
p1029
tp1030
(dp1031
Vconfigs
p1032
(lp1033
Vkernelarch-mips/config.malta
p1034
aVkernelarch-mips/config.mips32r2
p1035
ass(Vdescription
p1036
g1004
NV5kc-malta
p1037
tp1038
(dp1039
Vhardware
p1040
VMIPS Malta (64-bit)
p1041
sVhardware-long
p1042
VMIPS Malta boards (64-bit)
p1043
ss(Vimage
p1044
g1004
NV5kc-malta
p1045
tp1046
(dp1047
Vconfigs
p1048
(lp1049
Vkernelarch-mips/config.malta
p1050
aVkernelarch-mips/config.mips64r2
p1051
ass(Vdescription
p1052
g1004
NVloongson-3
p1053
tp1054
(dp1055
Vhardware
p1056
VLoongson 3A/3B
p1057
sVhardware-long
p1058
VLoongson 3A or 3B based systems (e.g. from Loongson or Lemote)
p1059
ss(Vimage
p1060
g1004
NVloongson-3
p1061
tp1062
(dp1063
Vconfigs
p1064
(lp1065
Vkernelarch-mips/config.loongson-3
p1066
ass(Vdescription
p1067
g1004
NVocteon
p1068
tp1069
(dp1070
Vhardware
p1071
VOcteon
p1072
sVhardware-long
p1073
VCavium Networks Octeon
p1074
ss(Vbuild
p1075
g1004
NVocteon
p1076
tp1077
(dp1078
Vimage-file
p1079
Vvmlinux
p1080
ss(Vimage
p1081
g1004
NVocteon
p1082
tp1083
(dp1084
Vinstall-stem
p1085
Vvmlinux
p1086
sVconfigs
p1087
(lp1088
Vkernelarch-mips/config.octeon
p1089
ass(g212
g1004
g181
tp1090
(dp1091
g215
(lp1092
V4kc-malta
p1093
aV5kc-malta
p1094
aVloongson-3
p1095
aVocteon
p1096
asg219
I01
ss(Vbase
p1097
Vmipsn32
p1098
tp1099
(dp1100
Vkernel-arch
p1101
Vmips
p1102
sVfeaturesets
p1103
(lp1104
ss(Vbase
p1105
Vmipsn32el
p1106
tp1107
(dp1108
Vkernel-arch
p1109
Vmips
p1110
sVfeaturesets
p1111
(lp1112
ss(Vbase
p1113
Vmipsn32r6
p1114
tp1115
(dp1116
Vkernel-arch
p1117
Vmips
p1118
sVfeaturesets
p1119
(lp1120
ss(Vbase
p1121
Vmipsn32r6el
p1122
tp1123
(dp1124
Vkernel-arch
p1125
Vmips
p1126
sVfeaturesets
p1127
(lp1128
ss(Vbase
p1129
Vmipsr6
p1130
tp1131
(dp1132
Vdefault-flavour
p1133
Vmips32r6
p1134
sVkernel-arch
p1135
Vmips
p1136
sg179
(lp1137
g181
ass(Vbuild
p1138
g1130
tp1139
(dp1140
Vimage-file
p1141
Vvmlinux
p1142
ss(Vimage
p1143
g1130
tp1144
(dp1145
Vinstall-stem
p1146
Vvmlinux
p1147
ss(Vdescription
p1148
g1130
NVmips32r6
p1149
tp1150
(dp1151
Vhardware
p1152
VMIPS R6 (32 bit, big endian)
p1153
sVhardware-long
p1154
VMIPS R6 (32 bit, big endian)
p1155
ss(Vimage
p1156
g1130
NVmips32r6
p1157
tp1158
(dp1159
Vconfigs
p1160
(lp1161
Vkernelarch-mips/config.boston
p1162
aVkernelarch-mips/config.mips32r6
p1163
ass(Vdescription
p1164
g1130
NVmips64r6
p1165
tp1166
(dp1167
Vhardware
p1168
VMIPS R6 (64 bit, big endian)
p1169
sVhardware-long
p1170
VMIPS R6 (64 bit, big endian)
p1171
ss(Vimage
p1172
g1130
NVmips64r6
p1173
tp1174
(dp1175
Vconfigs
p1176
(lp1177
Vkernelarch-mips/config.boston
p1178
aVkernelarch-mips/config.mips64r6
p1179
ass(g212
g1130
g181
tp1180
(dp1181
g215
(lp1182
Vmips32r6
p1183
aVmips64r6
p1184
asg219
I01
ss(Vbase
p1185
Vmipsr6el
p1186
tp1187
(dp1188
Vdefault-flavour
p1189
Vmips32r6el
p1190
sVkernel-arch
p1191
Vmips
p1192
sg179
(lp1193
g181
ass(Vbuild
p1194
g1186
tp1195
(dp1196
Vimage-file
p1197
Vvmlinux
p1198
ss(Vimage
p1199
g1186
tp1200
(dp1201
Vinstall-stem
p1202
Vvmlinux
p1203
ss(Vdescription
p1204
g1186
NVmips32r6el
p1205
tp1206
(dp1207
Vhardware
p1208
VMIPS R6 (32 bit, little endian)
p1209
sVhardware-long
p1210
VMIPS R6 (32 bit, little endian)
p1211
ss(Vimage
p1212
g1186
NVmips32r6el
p1213
tp1214
(dp1215
Vconfigs
p1216
(lp1217
Vkernelarch-mips/config.boston
p1218
aVkernelarch-mips/config.mips32r6
p1219
ass(Vdescription
p1220
g1186
NVmips64r6el
p1221
tp1222
(dp1223
Vhardware
p1224
VMIPS R6 (64 bit, little endian)
p1225
sVhardware-long
p1226
VMIPS R6 (64 bit, little endian)
p1227
ss(Vimage
p1228
g1186
NVmips64r6el
p1229
tp1230
(dp1231
Vconfigs
p1232
(lp1233
Vkernelarch-mips/config.boston
p1234
aVkernelarch-mips/config.mips64r6
p1235
ass(g212
g1186
g181
tp1236
(dp1237
g215
(lp1238
Vmips32r6el
p1239
aVmips64r6el
p1240
asg219
I01
ss(Vbase
p1241
Vpowerpc
p1242
tp1243
(dp1244
Vkernel-arch
p1245
Vpowerpc
p1246
sg179
(lp1247
g181
ass(Vbuild
p1248
g1242
tp1249
(dp1250
Vimage-file
p1251
Vvmlinux
p1252
sVvdso
p1253
I01
ss(Vimage
p1254
g1242
tp1255
(dp1256
Vconfigs
p1257
(lp1258
sVbootloaders
p1259
(lp1260
Vgrub-ieee1275
p1261
asVsuggests
p1262
(lp1263
Vmkvmlinuz
p1264
asVinstall-stem
p1265
Vvmlinux
p1266
ss(Vdescription
p1267
g1242
NVpowerpc
p1268
tp1269
(dp1270
Vhardware
p1271
Vuniprocessor 32-bit PowerPC
p1272
ss(Vdescription
p1273
g1242
NVpowerpc-smp
p1274
tp1275
(dp1276
Vhardware
p1277
Vmultiprocessor 32-bit PowerPC
p1278
ss(Vimage
p1279
g1242
NVpowerpc-smp
p1280
tp1281
(dp1282
Vconfigs
p1283
(lp1284
Vpowerpc/config.powerpc
p1285
aVpowerpc/config.powerpc-smp
p1286
ass(Vdescription
p1287
g1242
NVpowerpc64
p1288
tp1289
(dp1290
Vhardware
p1291
V64-bit PowerPC
p1292
ss(Vimage
p1293
g1242
NVpowerpc64
p1294
tp1295
(dp1296
Vconfigs
p1297
(lp1298
Vkernelarch-powerpc/config-arch-64
p1299
aVkernelarch-powerpc/config-arch-64-be
p1300
ass(g212
g1242
g181
tp1301
(dp1302
g215
(lp1303
Vpowerpc
p1304
aVpowerpc-smp
p1305
aVpowerpc64
p1306
asg219
I01
ss(Vbase
p1307
Vppc64
p1308
tp1309
(dp1310
Vdefault-flavour
p1311
Vpowerpc64
p1312
sVkernel-arch
p1313
Vpowerpc
p1314
sg179
(lp1315
g181
ass(Vbuild
p1316
g1308
tp1317
(dp1318
Vimage-file
p1319
Vvmlinux
p1320
sVvdso
p1321
I01
ss(Vimage
p1322
g1308
tp1323
(dp1324
Vconfigs
p1325
(lp1326
sVbootloaders
p1327
(lp1328
Vgrub-ieee1275
p1329
asVsuggests
p1330
(lp1331
Vmkvmlinuz
p1332
asVinstall-stem
p1333
Vvmlinux
p1334
ss(Vdescription
p1335
g1308
NVpowerpc64
p1336
tp1337
(dp1338
Vhardware
p1339
V64-bit PowerPC
p1340
ss(Vimage
p1341
g1308
NVpowerpc64
p1342
tp1343
(dp1344
Vconfigs
p1345
(lp1346
Vkernelarch-powerpc/config-arch-64
p1347
aVkernelarch-powerpc/config-arch-64-be
p1348
ass(g212
g1308
g181
tp1349
(dp1350
g215
(lp1351
Vpowerpc64
p1352
asg219
I01
ss(Vbase
p1353
Vppc64el
p1354
tp1355
(dp1356
Vdefault-flavour
p1357
Vpowerpc64le
p1358
sVkernel-arch
p1359
Vpowerpc
p1360
sg179
(lp1361
g181
ass(Vbuild
p1362
g1354
tp1363
(dp1364
Vimage-file
p1365
Vvmlinux
p1366
sVvdso
p1367
I01
ss(Vimage
p1368
g1354
tp1369
(dp1370
Vconfigs
p1371
(lp1372
sVbootloaders
p1373
(lp1374
Vgrub-ieee1275
p1375
asVsuggests
p1376
(lp1377
Vmkvmlinuz
p1378
asVinstall-stem
p1379
Vvmlinux
p1380
ss(Vdescription
p1381
g1354
NVpowerpc64le
p1382
tp1383
(dp1384
Vhardware
p1385
VLittle-endian 64-bit PowerPC
p1386
ss(Vimage
p1387
g1354
NVpowerpc64le
p1388
tp1389
(dp1390
Vconfigs
p1391
(lp1392
Vkernelarch-powerpc/config-arch-64
p1393
aVkernelarch-powerpc/config-arch-64-le
p1394
ass(g212
g1354
g181
tp1395
(dp1396
g215
(lp1397
Vpowerpc64le
p1398
asg219
I01
ss(Vbase
p1399
Vriscv64
p1400
tp1401
(dp1402
Vkernel-arch
p1403
Vriscv
p1404
sVfeaturesets
p1405
(lp1406
Vnone
p1407
ass(Vbuild
p1408
g1400
tp1409
(dp1410
Vimage-file
p1411
Varch/riscv/boot/Image
p1412
sVvdso
p1413
I01
ss(Vimage
p1414
g1400
tp1415
(dp1416
Vinstall-stem
p1417
Vvmlinux
p1418
ss(Vdescription
p1419
g1400
NVriscv64
p1420
tp1421
(dp1422
Vhardware
p1423
V64-bit RISC-V platforms
p1424
sVhardware-long
p1425
V64-bit RISC-V platforms
p1426
ss(Vbase
p1427
g1400
Vnone
p1428
tp1429
(dp1430
Vflavours
p1431
(lp1432
Vriscv64
p1433
asVdefault-flavour
p1434
Vriscv64
p1435
ss(Vbase
p1436
Vs390
p1437
tp1438
(dp1439
Vkernel-arch
p1440
Vs390
p1441
sVfeaturesets
p1442
(lp1443
ss(Vbase
p1444
Vs390x
p1445
tp1446
(dp1447
Vdefault-flavour
p1448
Vs390x
p1449
sVkernel-arch
p1450
Vs390
p1451
sg179
(lp1452
g181
ass(Vbuild
p1453
g1445
tp1454
(dp1455
Vimage-file
p1456
Varch/s390/boot/bzImage
p1457
sVvdso
p1458
I01
ss(Vimage
p1459
g1445
tp1460
(dp1461
Vbootloaders
p1462
(lp1463
Vs390-tools
p1464
asVinstall-stem
p1465
Vvmlinuz
p1466
ss(Vrelations
p1467
g1445
tp1468
(dp1469
Vheaders%gcc-10
p1470
Vlinux-compiler-gcc-10-s390
p1471
ss(Vdescription
p1472
g1445
NVs390x
p1473
tp1474
(dp1475
Vhardware
p1476
VIBM zSeries
p1477
ss(g212
g1445
g181
tp1478
(dp1479
g215
(lp1480
Vs390x
p1481
asg219
I01
ss(Vbase
p1482
Vsh3
p1483
tp1484
(dp1485
Vkernel-arch
p1486
Vsh
p1487
sVfeaturesets
p1488
(lp1489
ss(Vbase
p1490
Vsh4
p1491
tp1492
(dp1493
Vkernel-arch
p1494
Vsh
p1495
sg179
(lp1496
g181
ass(Vbuild
p1497
g1491
tp1498
(dp1499
Vimage-file
p1500
Varch/sh/boot/zImage
p1501
ss(Vimage
p1502
g1491
tp1503
(dp1504
Vinstall-stem
p1505
Vvmlinuz
p1506
ss(Vdescription
p1507
g1491
NVsh7751r
p1508
tp1509
(dp1510
Vhardware
p1511
Vsh7751r
p1512
sVhardware-long
p1513
VRenesas SH7751R R2D plus board
p1514
ss(Vdescription
p1515
g1491
NVsh7785lcr
p1516
tp1517
(dp1518
Vhardware
p1519
Vsh7785lcr
p1520
sVhardware-long
p1521
VRenesas SH7785 reference board
p1522
ss(Vimage
p1523
g1491
NVsh7785lcr
p1524
tp1525
(dp1526
Vrecommends
p1527
(lp1528
Vu-boot-tools
p1529
asVcheck-size
p1530
I4194304
ss(g212
g1491
g181
tp1531
(dp1532
g215
(lp1533
Vsh7751r
p1534
aVsh7785lcr
p1535
asg219
I01
ss(Vbase
p1536
Vsparc
p1537
tp1538
(dp1539
Vkernel-arch
p1540
Vsparc
p1541
sVfeaturesets
p1542
(lp1543
ss(Vbase
p1544
Vsparc64
p1545
tp1546
(dp1547
Vdefault-flavour
p1548
Vsparc64-smp
p1549
sVkernel-arch
p1550
Vsparc
p1551
sg179
(lp1552
g181
ass(Vbuild
p1553
g1545
tp1554
(dp1555
Vimage-file
p1556
Vvmlinux
p1557
ss(Vimage
p1558
g1545
tp1559
(dp1560
Vconfigs
p1561
(lp1562
sVbootloaders
p1563
(lp1564
Vgrub-ieee1275
p1565
asVsuggests
p1566
(lp1567
Vfdutils
p1568
asVinstall-stem
p1569
Vvmlinux
p1570
ss(Vdescription
p1571
g1545
NVsparc64
p1572
tp1573
(dp1574
Vhardware
p1575
Vuniprocessor 64-bit UltraSPARC
p1576
ss(Vimage
p1577
g1545
NVsparc64
p1578
tp1579
(dp1580
Vconfigs
p1581
(lp1582
Vkernelarch-sparc/config-up
p1583
ass(Vdescription
p1584
g1545
NVsparc64-smp
p1585
tp1586
(dp1587
Vhardware
p1588
Vmultiprocessor 64-bit UltraSPARC
p1589
ss(Vimage
p1590
g1545
NVsparc64-smp
p1591
tp1592
(dp1593
Vconfigs
p1594
(lp1595
Vkernelarch-sparc/config-smp
p1596
ass(g212
g1545
g181
tp1597
(dp1598
g215
(lp1599
Vsparc64
p1600
aVsparc64-smp
p1601
asg219
I01
ss(Vbase
p1602
Vx32
p1603
tp1604
(dp1605
Vkernel-arch
p1606
Vx86
p1607
sVfeaturesets
p1608
(lp1609
ss(Vabi
p1610
NVrt
p1611
tp1612
(dp1613
Vignore-changes
p1614
(lp1615
V*
p1616
ass(Vdescription
p1617
Ng1611
tp1618
(dp1619
Vpart-long-rt
p1620
VThis kernel includes the PREEMPT_RT realtime patch set.
p1621
sVpart-short-rt
p1622
VPREEMPT_RT
p1623
sVparts
p1624
(lp1625
Vrt
p1626
ass(Vversion
p1627
tp1628
(dp1629
Vsource
p1630
V5.10.4-1
p1631
sVupstream
p1632
V5.10
p1633
sVabiname_base
p1634
V5.10.0
p1635
sVabiname
p1636
V5.10.0-1
p1637
ss.