cdebian_linux.config
ConfigCore
p0
(tRp1
(Vabi
p2
tp3
(dp4
Vabiname
p5
V13
p6
sVignore-changes
p7
(lp8
V__cpuhp_*
p9
aVbpf_analyzer
p10
aVcxl_*
p11
aVdax_flush
p12
aVieee80211_nullfunc_get
p13
aVinet_add_protocol
p14
aVinet_del_protocol
p15
aViommu_device_*
p16
aVmm_iommu_*
p17
aVmv_mbus_*
p18
aVperf_*
p19
aVregister_cxl_calls
p20
aVregister_key_type
p21
aVunregister_cxl_calls
p22
aV*_hw_breakpoint
p23
aVmodule:drivers/crypto/ccp/*
p24
aVmodule:drivers/hv/*
p25
aVmodule:drivers/gpu/drm/sun4i/*
p26
aVmodule:drivers/iio/**
p27
aVmodule:drivers/misc/cxl/*
p28
aVmodule:drivers/mtd/nand/*
p29
aVmodule:drivers/net/ethernet/**
p30
aVmodule:drivers/net/wireless/**
p31
aVmodule:drivers/nvdimm/*
p32
aVmodule:drivers/power/supply/bq27xxx_battery
p33
aVmodule:drivers/scsi/cxgbi/*
p34
aVmodule:drivers/scsi/libiscs*
p35
aVmodule:drivers/scsi/qla2xxx/qla2xxx
p36
aVmodule:drivers/scsi/ufs/*
p37
aVmodule:drivers/target/**
p38
aVmodule:drivers/usb/chipidea/**
p39
aVmodule:drivers/usb/gadget/**
p40
aVmodule:drivers/usb/host/**
p41
aVmodule:drivers/usb/musb/**
p42
aVmodule:fs/nfs/**
p43
aVmodule:net/ceph/libceph
p44
aVmodule:net/l2tp/**
p45
aVmodule:net/rxrpc/rxrpc
p46
aVmodule:net/sctp/**
p47
aVmodule:sound/core/seq/**
p48
aVmodule:sound/firewire/snd-firewire-lib
p49
aVmodule:sound/pci/hda/*
p50
aVbtree_*
p51
aVvisitor*
p52
aVcan_rx_register
p53
aVip6_xmit
p54
aVmodule:net/dccp/dccp
p55
aVmodule:net/rds/rds
p56
aVdevfreq_*
p57
aVdevm_devfreq_*
p58
aVupdate_devfreq
p59
aVmodule:drivers/infiniband/**
p60
aVacpi_ec_add_query_handler
p61
aVacpi_ec_remove_query_handler
p62
aVfirst_ec
p63
aVdebugfs_create_automount
p64
aVmodule:drivers/iio/imu/inv_mpu6050/*
p65
aVdrm_crtc_accurate_vblank_count
p66
aVacpi_nfit_desc_init
p67
aVacpi_nfit_init
p68
aVloop_register_transfer
p69
aVxen_xlate_*
p70
aVnf_nat_masquerade_ipv4_register_notifier
p71
aVnf_nat_masquerade_ipv6_register_notifier
p72
aVmodule:drivers/scsi/hisi_sas/*
p73
aV__kvm_*
p74
aV__xive_vm_h_*
p75
aV_kvmppc_*
p76
aVgfn_to_*
p77
aVkvm_*
p78
aVkvmppc_*
p79
aVmark_page_dirty
p80
aVvcpu_*
p81
aVmodule:arch/x86/kvm/*
p82
aVtm_abort
p83
aVtm_disable
p84
aVtm_enable
p85
ass(Vbase
p86
tp87
(dp88
Varches
p89
(lp90
Valpha
p91
aVamd64
p92
aVarm64
p93
aVarm64ilp32
p94
aVarmel
p95
aVarmhf
p96
aVhppa
p97
aVi386
p98
aVia64
p99
aVm68k
p100
aVmips
p101
aVmips64
p102
aVmips64el
p103
aVmips64r6
p104
aVmips64r6el
p105
aVmipsel
p106
aVmipsn32
p107
aVmipsn32el
p108
aVmipsn32r6
p109
aVmipsn32r6el
p110
aVmipsr6
p111
aVmipsr6el
p112
aVpowerpc
p113
aVpowerpcspe
p114
aVppc64
p115
aVppc64el
p116
aVriscv64
p117
aVs390
p118
aVs390x
p119
aVsh3
p120
aVsh4
p121
aVsparc
p122
aVsparc64
p123
aVx32
p124
asVcompiler
p125
Vgcc-8
p126
sVfeaturesets
p127
(lp128
Vnone
p129
aVrt
p130
ass(Vbuild
p131
tp132
(dp133
Vdebug-info
p134
I01
sVsigned-code
p135
I00
ss(Vbase
p136
NVrt
p137
tp138
(dp139
Venabled
p140
I01
ss(Vdescription
p141
tp142
(dp143
Vpart-long-up
p144
VThis kernel is not suitable for SMP (multi-processor,\u000amulti-core or hyper-threaded) systems.
p145
ss(Vimage
p146
tp147
(dp148
Vinitramfs-generators
p149
(lp150
Vinitramfs-tools
p151
aVinitramfs-fallback
p152
asVrecommends
p153
(lp154
Vapparmor
p155
ass(Vrelations
p156
tp157
(dp158
Vgcc-8
p159
Vgcc-8 <!stage1 !cross !pkg.linux.nokernel>, gcc-8-@gnu-type-package@ <!stage1 cross !pkg.linux.nokernel>
p160
sVinitramfs-fallback
p161
Vlinux-initramfs-tool
p162
sVinitramfs-tools
p163
Vinitramfs-tools (>= 0.120+deb8u2)
p164
ss(Vbase
p165
Valpha
p166
tp167
(dp168
Vkernel-arch
p169
Valpha
p170
sVfeaturesets
p171
(lp172
Vnone
p173
ass(Vbuild
p174
g166
tp175
(dp176
Vimage-file
p177
Varch/alpha/boot/vmlinux.gz
p178
ss(Vimage
p179
g166
tp180
(dp181
Vsuggests
p182
(lp183
Vaboot
p184
aVfdutils
p185
asVinstall-stem
p186
Vvmlinuz
p187
ss(Vdescription
p188
g166
NValpha-generic
p189
tp190
(dp191
Vhardware
p192
VAlpha
p193
sVhardware-long
p194
VDEC Alpha systems with extended kernel start address (Wildfire, Titan, Marvel)
p195
ss(Vdescription
p196
g166
NValpha-smp
p197
tp198
(dp199
Vhardware
p200
VAlpha SMP
p201
sVhardware-long
p202
VDEC Alpha SMP systems with extended kernel start address (Wildfire, Titan, Marvel)
p203
ss(Vbase
p204
g166
g173
tp205
(dp206
Vflavours
p207
(lp208
Valpha-generic
p209
aValpha-smp
p210
asVimplicit-flavour
p211
I01
ss(Vbase
p212
Vamd64
p213
tp214
(dp215
Vfeaturesets
p216
(lp217
Vnone
p218
aVrt
p219
asVkernel-arch
p220
Vx86
p221
ss(Vbuild
p222
g213
tp223
(dp224
Vdebug-info
p225
I01
sVimage-file
p226
Varch/x86/boot/bzImage
p227
sVsigned-code
p228
I01
sVvdso
p229
I01
ss(Vimage
p230
g213
tp231
(dp232
Vbootloaders
p233
(lp234
Vgrub-pc
p235
aVgrub-efi-amd64
p236
aVextlinux
p237
asVinstall-stem
p238
Vvmlinuz
p239
sVbreaks
p240
(lp241
Vxserver-xorg-input-vmmouse (<< 1:13.0.99)
p242
ass(Vrelations
p243
g213
tp244
(dp245
Vgcc-8
p246
Vgcc-8 (>= 8-20180123-1~) <!stage1 !cross !pkg.linux.nokernel>, gcc-8-x86-64-linux-gnu (>= 8-20180123-1~) <!stage1 cross !pkg.linux.nokernel>
p247
sVheaders%gcc-8
p248
Vlinux-compiler-gcc-8-x86
p249
ss(Vdescription
p250
g213
NVamd64
p251
tp252
(dp253
Vhardware
p254
V64-bit PCs
p255
sVhardware-long
p256
VPCs with AMD64, Intel 64 or VIA Nano processors
p257
ss(Vdescription
p258
g213
NVcloud-amd64
p259
tp260
(dp261
Vhardware
p262
Vx86-64 cloud
p263
sVhardware-long
p264
VAmazon EC2, Google Compute Engine and Microsoft Azure cloud platforms
p265
ss(Vbase
p266
g213
Vnone
p267
tp268
(dp269
Vflavours
p270
(lp271
Vamd64
p272
aVcloud-amd64
p273
ass(Vbase
p274
g213
Vrt
p275
tp276
(dp277
Vflavours
p278
(lp279
Vamd64
p280
ass(Vbase
p281
Varm64
p282
tp283
(dp284
Vkernel-arch
p285
Varm64
p286
sVfeaturesets
p287
(lp288
Vnone
p289
aVrt
p290
ass(Vbuild
p291
g282
tp292
(dp293
Vdebug-info
p294
I01
sVimage-file
p295
Varch/arm64/boot/Image
p296
sVsigned-code
p297
I01
sVvdso
p298
I01
ss(Vimage
p299
g282
tp300
(dp301
Vinstall-stem
p302
Vvmlinuz
p303
sVbreaks
p304
(lp305
Vlibmozjs185-1.0
p306
aVlibmozjs-24-0 (<< 24.2.0-5.1~)
p307
ass(Vdescription
p308
g282
NVarm64
p309
tp310
(dp311
Vhardware
p312
V64-bit ARMv8 machines
p313
ss(Vimage
p314
g282
NVarm64
p315
tp316
(dp317
s(Vbase
p318
g282
Vnone
p319
tp320
(dp321
Vflavours
p322
(lp323
Varm64
p324
ass(Vbase
p325
g282
Vrt
p326
tp327
(dp328
Vflavours
p329
(lp330
Varm64
p331
ass(Vbase
p332
Varm64ilp32
p333
tp334
(dp335
Vkernel-arch
p336
Varm64
p337
sVfeaturesets
p338
(lp339
ss(Vbase
p340
Varmel
p341
tp342
(dp343
Vkernel-arch
p344
Varm
p345
sg171
(lp346
g173
ass(Vbuild
p347
g341
tp348
(dp349
Vimage-file
p350
Varch/arm/boot/zImage
p351
sVuncompressed-image-file
p352
Varch/arm/boot/Image
p353
ss(Vimage
p354
g341
tp355
(dp356
Vinstall-stem
p357
Vvmlinuz
p358
ss(Vrelations
p359
g341
tp360
(dp361
Vheaders%gcc-8
p362
Vlinux-compiler-gcc-8-arm
p363
ss(Vdescription
p364
g341
NVmarvell
p365
tp366
(dp367
Vhardware
p368
VMarvell Kirkwood/Orion
p369
sVhardware-long
p370
VMarvell Kirkwood and Orion based systems (https://wiki.debian.org/ArmEabiPort#Supported_hardware)
p371
ss(Vdescription
p372
g341
NVrpi
p373
tp374
(dp375
Vhardware
p376
VRaspberry Pi and Pi Zero
p377
sVhardware-long
p378
VRaspberry Pi, Raspberry Pi Zero based systems
p379
ss(Vimage
p380
g341
NVmarvell
p381
tp382
(dp383
Vrecommends
p384
(lp385
Vu-boot-tools
p386
asVcheck-size
p387
I2097080
sVcheck-size-with-dtb
p388
I01
sVcheck-uncompressed-size
p389
I7340032
sVbreaks
p390
(lp391
Vflash-kernel (<< 3.57~)
p392
ass(g204
g341
g173
tp393
(dp394
g207
(lp395
Vmarvell
p396
aVrpi
p397
asg211
I01
ss(Vbase
p398
Varmhf
p399
tp400
(dp401
Vfeaturesets
p402
(lp403
Vnone
p404
aVrt
p405
asVkernel-arch
p406
Varm
p407
ss(Vbuild
p408
g399
tp409
(dp410
Vimage-file
p411
Varch/arm/boot/zImage
p412
sVvdso
p413
I01
ss(Vimage
p414
g399
tp415
(dp416
Vinstall-stem
p417
Vvmlinuz
p418
ss(Vrelations
p419
g399
tp420
(dp421
Vheaders%gcc-8
p422
Vlinux-compiler-gcc-8-arm
p423
ss(Vdescription
p424
g399
NVarmmp
p425
tp426
(dp427
Vhardware
p428
VARMv7 multiplatform compatible SoCs
p429
sVhardware-long
p430
VARMv7 multiplatform kernel. See\u000ahttps://wiki.debian.org/DebianKernel/ARMMP for details of supported\u000aplatforms
p431
ss(Vdescription
p432
g399
NVarmmp-lpae
p433
tp434
(dp435
Vhardware
p436
VARMv7 multiplatform compatible SoCs supporting LPAE
p437
sVhardware-long
p438
VARMv7 multiplatform kernel supporting LPAE. See\u000ahttps://wiki.debian.org/DebianKernel/ARMMP for details of supported\u000aplatforms.
p439
ss(Vbase
p440
g399
Vnone
p441
tp442
(dp443
Vflavours
p444
(lp445
Varmmp
p446
aVarmmp-lpae
p447
ass(Vbase
p448
g399
Vrt
p449
tp450
(dp451
Vflavours
p452
(lp453
Varmmp
p454
ass(Vbase
p455
Vhppa
p456
tp457
(dp458
Vkernel-arch
p459
Vparisc
p460
sg171
(lp461
g173
ass(Vbuild
p462
g456
tp463
(dp464
Vimage-file
p465
Varch/parisc/boot/bzImage
p466
sVdebug-info
p467
I00
ss(Vimage
p468
g456
tp469
(dp470
Vsuggests
p471
(lp472
Vpalo
p473
asVinstall-stem
p474
Vvmlinuz
p475
ss(Vdescription
p476
g456
NVparisc
p477
tp478
(dp479
Vhardware
p480
V32-bit PA-RISC
p481
sVhardware-long
p482
VHP PA-RISC 32-bit systems with max 4 GB RAM
p483
ss(Vdescription
p484
g456
NVparisc-smp
p485
tp486
(dp487
Vhardware
p488
Vmultiprocessor 32-bit PA-RISC
p489
sVhardware-long
p490
VHP PA-RISC 32-bit SMP systems with max 4 GB RAM
p491
ss(Vbase
p492
g456
NVparisc64-smp
p493
tp494
(dp495
Vcflags
p496
V-fno-cse-follow-jumps
p497
sVoverride-host-type
p498
Vhppa64-linux-gnu
p499
ss(Vdescription
p500
g456
NVparisc64-smp
p501
tp502
(dp503
Vhardware
p504
Vmultiprocessor 64-bit PA-RISC
p505
sVhardware-long
p506
VHP PA-RISC 64-bit SMP systems with support for more than 4 GB RAM
p507
ss(Vrelations
p508
g456
tp509
(dp510
Vgcc-8
p511
Vgcc-8 <!stage1 !cross !pkg.linux.nokernel>, gcc-8-hppa-linux-gnu <!stage1 cross !pkg.linux.nokernel>, binutils-hppa64-linux-gnu <!stage1 !pkg.linux.nokernel>, gcc-8-hppa64-linux-gnu <!stage1 !pkg.linux.nokernel>
p512
ss(g204
g456
g173
tp513
(dp514
g207
(lp515
Vparisc
p516
aVparisc-smp
p517
aVparisc64-smp
p518
asg211
I01
ss(Vbase
p519
Vi386
p520
tp521
(dp522
Vfeaturesets
p523
(lp524
Vnone
p525
aVrt
p526
asVkernel-arch
p527
Vx86
p528
ss(Vbuild
p529
g520
tp530
(dp531
Vimage-file
p532
Varch/x86/boot/bzImage
p533
sVsigned-code
p534
I01
sVvdso
p535
I01
ss(Vdescription
p536
g520
tp537
(dp538
Vpart-long-pae
p539
VThis kernel requires PAE (Physical Address Extension).\u000aThis feature is supported by the Intel Pentium Pro/II/III/4/4M/D, Xeon,\u000aCore and Atom; AMD Geode NX, Athlon (K7), Duron, Opteron, Sempron,\u000aTurion or Phenom; Transmeta Efficeon; VIA C7; and some other processors.
p540
ss(Vimage
p541
g520
tp542
(dp543
Vbootloaders
p544
(lp545
Vgrub-pc
p546
aVgrub-efi-ia32
p547
aVextlinux
p548
asVinstall-stem
p549
Vvmlinuz
p550
sVbreaks
p551
(lp552
Vxserver-xorg-input-vmmouse (<< 1:13.0.99)
p553
ass(Vrelations
p554
g520
tp555
(dp556
Vgcc-8
p557
Vgcc-8 (>= 8-20180123-1~) <!stage1 !cross !pkg.linux.nokernel>, gcc-8-i686-linux-gnu (>= 8-20180123-1~) <!stage1 cross !pkg.linux.nokernel>
p558
sVheaders%gcc-8
p559
Vlinux-compiler-gcc-8-x86
p560
ss(Vdescription
p561
g520
NV686
p562
tp563
(dp564
Vhardware
p565
Volder PCs
p566
sVhardware-long
p567
VPCs with one or more processors not supporting PAE
p568
ss(Vbuild
p569
g520
NV686-pae
p570
tp571
(dp572
Vdebug-info
p573
I01
ss(Vdescription
p574
g520
NV686-pae
p575
tp576
(dp577
Vhardware
p578
Vmodern PCs
p579
sVhardware-long
p580
VPCs with one or more processors supporting PAE
p581
sVparts
p582
(lp583
Vpae
p584
ass(Vbase
p585
g520
Vnone
p586
tp587
(dp588
Vflavours
p589
(lp590
V686
p591
aV686-pae
p592
ass(Vbase
p593
g520
Vrt
p594
tp595
(dp596
Vflavours
p597
(lp598
V686-pae
p599
ass(Vbase
p600
Via64
p601
tp602
(dp603
Vkernel-arch
p604
Via64
p605
sg171
(lp606
g173
ass(Vbuild
p607
g601
tp608
(dp609
Vimage-file
p610
Vvmlinux.gz
p611
ss(Vimage
p612
g601
tp613
(dp614
Vbootloaders
p615
(lp616
Vgrub-efi-ia64
p617
asVinstall-stem
p618
Vvmlinuz
p619
ss(Vdescription
p620
g601
NVitanium
p621
tp622
(dp623
Vhardware
p624
VItanium (Merced)
p625
sVhardware-long
p626
Vsystems with original Itanium (Merced) processors
p627
ss(Vdescription
p628
g601
NVmckinley
p629
tp630
(dp631
Vhardware
p632
VItanium 2+
p633
sVhardware-long
p634
Vsystems with Itanium 2 or 9300/9500/9700-series processors
p635
ss(g204
g601
g173
tp636
(dp637
g207
(lp638
Vitanium
p639
aVmckinley
p640
asg211
I01
ss(Vbase
p641
Vm68k
p642
tp643
(dp644
Vcflags
p645
V-ffreestanding
p646
sVkernel-arch
p647
Vm68k
p648
sg171
(lp649
g173
ass(Vbuild
p650
g642
tp651
(dp652
Vimage-file
p653
Vvmlinux
p654
ss(Vimage
p655
g642
tp656
(dp657
Vsuggests
p658
(lp659
Vvmelilo
p660
aVfdutils
p661
asVinstall-stem
p662
Vvmlinux
p663
ss(Vdescription
p664
g642
NVm68k
p665
tp666
(dp667
Vhardware
p668
VMotorola MC68020+ family
p669
ss(g204
g642
g173
tp670
(dp671
g207
(lp672
Vm68k
p673
asg211
I01
ss(Vbase
p674
Vmips
p675
tp676
(dp677
Vkernel-arch
p678
Vmips
p679
sg171
(lp680
g173
ass(Vbuild
p681
g675
tp682
(dp683
Vimage-file
p684
Vvmlinux
p685
ss(Vimage
p686
g675
tp687
(dp688
Vinstall-stem
p689
Vvmlinux
p690
ss(Vdescription
p691
g675
NV4kc-malta
p692
tp693
(dp694
Vhardware
p695
VMIPS Malta
p696
sVhardware-long
p697
VMIPS Malta boards
p698
ss(Vimage
p699
g675
NV4kc-malta
p700
tp701
(dp702
Vconfigs
p703
(lp704
Vkernelarch-mips/config.malta
p705
aVkernelarch-mips/config.mips32r2
p706
ass(Vdescription
p707
g675
NV5kc-malta
p708
tp709
(dp710
Vhardware
p711
VMIPS Malta (64-bit)
p712
sVhardware-long
p713
VMIPS Malta boards (64-bit)
p714
ss(Vimage
p715
g675
NV5kc-malta
p716
tp717
(dp718
Vconfigs
p719
(lp720
Vkernelarch-mips/config.malta
p721
aVkernelarch-mips/config.mips64r2
p722
ass(Vdescription
p723
g675
NVocteon
p724
tp725
(dp726
Vhardware
p727
VOcteon
p728
sVhardware-long
p729
VCavium Networks Octeon
p730
ss(Vimage
p731
g675
NVocteon
p732
tp733
(dp734
Vconfigs
p735
(lp736
Vkernelarch-mips/config.octeon
p737
ass(g204
g675
g173
tp738
(dp739
g207
(lp740
V4kc-malta
p741
aV5kc-malta
p742
aVocteon
p743
asg211
I01
ss(Vbase
p744
Vmips64
p745
tp746
(dp747
Vkernel-arch
p748
Vmips
p749
sg171
(lp750
g173
ass(Vbuild
p751
g745
tp752
(dp753
Vimage-file
p754
Vvmlinux
p755
ss(Vimage
p756
g745
tp757
(dp758
Vinstall-stem
p759
Vvmlinux
p760
ss(Vdescription
p761
g745
NV5kc-malta
p762
tp763
(dp764
Vhardware
p765
VMIPS Malta
p766
sVhardware-long
p767
VMIPS Malta boards
p768
ss(Vimage
p769
g745
NV5kc-malta
p770
tp771
(dp772
Vconfigs
p773
(lp774
Vkernelarch-mips/config.malta
p775
aVkernelarch-mips/config.mips64r2
p776
ass(Vdescription
p777
g745
NVocteon
p778
tp779
(dp780
Vhardware
p781
VOcteon
p782
sVhardware-long
p783
VCavium Networks Octeon
p784
ss(Vimage
p785
g745
NVocteon
p786
tp787
(dp788
Vconfigs
p789
(lp790
Vkernelarch-mips/config.octeon
p791
ass(g204
g745
g173
tp792
(dp793
g207
(lp794
V5kc-malta
p795
aVocteon
p796
asg211
I01
ss(Vbase
p797
Vmips64el
p798
tp799
(dp800
Vkernel-arch
p801
Vmips
p802
sg171
(lp803
g173
ass(Vbuild
p804
g798
tp805
(dp806
Vimage-file
p807
Vvmlinux
p808
ss(Vimage
p809
g798
tp810
(dp811
Vinstall-stem
p812
Vvmlinux
p813
ss(Vdescription
p814
g798
NV5kc-malta
p815
tp816
(dp817
Vhardware
p818
VMIPS Malta
p819
sVhardware-long
p820
VMIPS Malta boards
p821
ss(Vimage
p822
g798
NV5kc-malta
p823
tp824
(dp825
Vconfigs
p826
(lp827
Vkernelarch-mips/config.malta
p828
aVkernelarch-mips/config.mips64r2
p829
ass(Vdescription
p830
g798
NVloongson-3
p831
tp832
(dp833
Vhardware
p834
VLoongson 3A/3B
p835
sVhardware-long
p836
VLoongson 3A or 3B based systems (e.g. from Loongson or Lemote)
p837
ss(Vimage
p838
g798
NVloongson-3
p839
tp840
(dp841
Vconfigs
p842
(lp843
Vkernelarch-mips/config.loongson-3
p844
ass(Vdescription
p845
g798
NVocteon
p846
tp847
(dp848
Vhardware
p849
VOcteon
p850
sVhardware-long
p851
VCavium Networks Octeon
p852
ss(Vimage
p853
g798
NVocteon
p854
tp855
(dp856
Vconfigs
p857
(lp858
Vkernelarch-mips/config.octeon
p859
ass(g204
g798
g173
tp860
(dp861
g207
(lp862
V5kc-malta
p863
aVloongson-3
p864
aVocteon
p865
asg211
I01
ss(Vbase
p866
Vmips64r6
p867
tp868
(dp869
Vkernel-arch
p870
Vmips
p871
sg171
(lp872
g173
ass(Vbuild
p873
g867
tp874
(dp875
Vimage-file
p876
Vvmlinux
p877
ss(Vimage
p878
g867
tp879
(dp880
Vinstall-stem
p881
Vvmlinux
p882
ss(Vdescription
p883
g867
NVmips64r6
p884
tp885
(dp886
Vhardware
p887
VMIPS R6 (64 bit, big endian)
p888
sVhardware-long
p889
VMIPS R6 (64 bit, big endian)
p890
ss(Vimage
p891
g867
NVmips64r6
p892
tp893
(dp894
Vconfigs
p895
(lp896
Vkernelarch-mips/config.boston
p897
aVkernelarch-mips/config.mips64r6
p898
ass(g204
g867
g173
tp899
(dp900
g207
(lp901
Vmips64r6
p902
asg211
I01
ss(Vbase
p903
Vmips64r6el
p904
tp905
(dp906
Vkernel-arch
p907
Vmips
p908
sg171
(lp909
g173
ass(Vbuild
p910
g904
tp911
(dp912
Vimage-file
p913
Vvmlinux
p914
ss(Vimage
p915
g904
tp916
(dp917
Vinstall-stem
p918
Vvmlinux
p919
ss(Vdescription
p920
g904
NVmips64r6el
p921
tp922
(dp923
Vhardware
p924
VMIPS R6 (64 bit, little endian)
p925
sVhardware-long
p926
VMIPS R6 (64 bit, little endian)
p927
ss(Vimage
p928
g904
NVmips64r6el
p929
tp930
(dp931
Vconfigs
p932
(lp933
Vkernelarch-mips/config.boston
p934
aVkernelarch-mips/config.mips64r6
p935
ass(g204
g904
g173
tp936
(dp937
g207
(lp938
Vmips64r6el
p939
asg211
I01
ss(Vbase
p940
Vmipsel
p941
tp942
(dp943
Vkernel-arch
p944
Vmips
p945
sg171
(lp946
g173
ass(Vbuild
p947
g941
tp948
(dp949
Vimage-file
p950
Vvmlinux
p951
ss(Vimage
p952
g941
tp953
(dp954
Vinstall-stem
p955
Vvmlinux
p956
ss(Vdescription
p957
g941
NV4kc-malta
p958
tp959
(dp960
Vhardware
p961
VMIPS Malta
p962
sVhardware-long
p963
VMIPS Malta boards
p964
ss(Vimage
p965
g941
NV4kc-malta
p966
tp967
(dp968
Vconfigs
p969
(lp970
Vkernelarch-mips/config.malta
p971
aVkernelarch-mips/config.mips32r2
p972
ass(Vdescription
p973
g941
NV5kc-malta
p974
tp975
(dp976
Vhardware
p977
VMIPS Malta (64-bit)
p978
sVhardware-long
p979
VMIPS Malta boards (64-bit)
p980
ss(Vimage
p981
g941
NV5kc-malta
p982
tp983
(dp984
Vconfigs
p985
(lp986
Vkernelarch-mips/config.malta
p987
aVkernelarch-mips/config.mips64r2
p988
ass(Vdescription
p989
g941
NVloongson-3
p990
tp991
(dp992
Vhardware
p993
VLoongson 3A/3B
p994
sVhardware-long
p995
VLoongson 3A or 3B based systems (e.g. from Loongson or Lemote)
p996
ss(Vimage
p997
g941
NVloongson-3
p998
tp999
(dp1000
Vconfigs
p1001
(lp1002
Vkernelarch-mips/config.loongson-3
p1003
ass(Vdescription
p1004
g941
NVocteon
p1005
tp1006
(dp1007
Vhardware
p1008
VOcteon
p1009
sVhardware-long
p1010
VCavium Networks Octeon
p1011
ss(Vimage
p1012
g941
NVocteon
p1013
tp1014
(dp1015
Vconfigs
p1016
(lp1017
Vkernelarch-mips/config.octeon
p1018
ass(g204
g941
g173
tp1019
(dp1020
g207
(lp1021
V4kc-malta
p1022
aV5kc-malta
p1023
aVloongson-3
p1024
aVocteon
p1025
asg211
I01
ss(Vbase
p1026
Vmipsn32
p1027
tp1028
(dp1029
Vkernel-arch
p1030
Vmips
p1031
sVfeaturesets
p1032
(lp1033
ss(Vbase
p1034
Vmipsn32el
p1035
tp1036
(dp1037
Vkernel-arch
p1038
Vmips
p1039
sVfeaturesets
p1040
(lp1041
ss(Vbase
p1042
Vmipsn32r6
p1043
tp1044
(dp1045
Vkernel-arch
p1046
Vmips
p1047
sVfeaturesets
p1048
(lp1049
ss(Vbase
p1050
Vmipsn32r6el
p1051
tp1052
(dp1053
Vkernel-arch
p1054
Vmips
p1055
sVfeaturesets
p1056
(lp1057
ss(Vbase
p1058
Vmipsr6
p1059
tp1060
(dp1061
Vkernel-arch
p1062
Vmips
p1063
sg171
(lp1064
g173
ass(Vbuild
p1065
g1059
tp1066
(dp1067
Vimage-file
p1068
Vvmlinux
p1069
ss(Vimage
p1070
g1059
tp1071
(dp1072
Vinstall-stem
p1073
Vvmlinux
p1074
ss(Vdescription
p1075
g1059
NVmips32r6
p1076
tp1077
(dp1078
Vhardware
p1079
VMIPS R6 (32 bit, big endian)
p1080
sVhardware-long
p1081
VMIPS R6 (32 bit, big endian)
p1082
ss(Vimage
p1083
g1059
NVmips32r6
p1084
tp1085
(dp1086
Vconfigs
p1087
(lp1088
Vkernelarch-mips/config.boston
p1089
aVkernelarch-mips/config.mips32r6
p1090
ass(Vdescription
p1091
g1059
NVmips64r6
p1092
tp1093
(dp1094
Vhardware
p1095
VMIPS R6 (64 bit, big endian)
p1096
sVhardware-long
p1097
VMIPS R6 (64 bit, big endian)
p1098
ss(Vimage
p1099
g1059
NVmips64r6
p1100
tp1101
(dp1102
Vconfigs
p1103
(lp1104
Vkernelarch-mips/config.boston
p1105
aVkernelarch-mips/config.mips64r6
p1106
ass(g204
g1059
g173
tp1107
(dp1108
g207
(lp1109
Vmips32r6
p1110
aVmips64r6
p1111
asg211
I01
ss(Vbase
p1112
Vmipsr6el
p1113
tp1114
(dp1115
Vkernel-arch
p1116
Vmips
p1117
sg171
(lp1118
g173
ass(Vbuild
p1119
g1113
tp1120
(dp1121
Vimage-file
p1122
Vvmlinux
p1123
ss(Vimage
p1124
g1113
tp1125
(dp1126
Vinstall-stem
p1127
Vvmlinux
p1128
ss(Vdescription
p1129
g1113
NVmips32r6el
p1130
tp1131
(dp1132
Vhardware
p1133
VMIPS R6 (32 bit, little endian)
p1134
sVhardware-long
p1135
VMIPS R6 (32 bit, little endian)
p1136
ss(Vimage
p1137
g1113
NVmips32r6el
p1138
tp1139
(dp1140
Vconfigs
p1141
(lp1142
Vkernelarch-mips/config.boston
p1143
aVkernelarch-mips/config.mips32r6
p1144
ass(Vdescription
p1145
g1113
NVmips64r6el
p1146
tp1147
(dp1148
Vhardware
p1149
VMIPS R6 (64 bit, little endian)
p1150
sVhardware-long
p1151
VMIPS R6 (64 bit, little endian)
p1152
ss(Vimage
p1153
g1113
NVmips64r6el
p1154
tp1155
(dp1156
Vconfigs
p1157
(lp1158
Vkernelarch-mips/config.boston
p1159
aVkernelarch-mips/config.mips64r6
p1160
ass(g204
g1113
g173
tp1161
(dp1162
g207
(lp1163
Vmips32r6el
p1164
aVmips64r6el
p1165
asg211
I01
ss(Vbase
p1166
Vpowerpc
p1167
tp1168
(dp1169
Vkernel-arch
p1170
Vpowerpc
p1171
sg171
(lp1172
g173
ass(Vbuild
p1173
g1167
tp1174
(dp1175
Vimage-file
p1176
Vvmlinux
p1177
sVvdso
p1178
I01
ss(Vimage
p1179
g1167
tp1180
(dp1181
Vconfigs
p1182
(lp1183
sVbootloaders
p1184
(lp1185
Vgrub-ieee1275
p1186
asVsuggests
p1187
(lp1188
Vmkvmlinuz
p1189
asVinstall-stem
p1190
Vvmlinux
p1191
ss(Vdescription
p1192
g1167
NVpowerpc
p1193
tp1194
(dp1195
Vhardware
p1196
Vuniprocessor 32-bit PowerPC
p1197
ss(Vdescription
p1198
g1167
NVpowerpc-smp
p1199
tp1200
(dp1201
Vhardware
p1202
Vmultiprocessor 32-bit PowerPC
p1203
ss(Vimage
p1204
g1167
NVpowerpc-smp
p1205
tp1206
(dp1207
Vconfigs
p1208
(lp1209
Vpowerpc/config.powerpc
p1210
aVpowerpc/config.powerpc-smp
p1211
ass(Vdescription
p1212
g1167
NVpowerpc64
p1213
tp1214
(dp1215
Vhardware
p1216
V64-bit PowerPC
p1217
ss(Vimage
p1218
g1167
NVpowerpc64
p1219
tp1220
(dp1221
Vconfigs
p1222
(lp1223
Vkernelarch-powerpc/config-arch-64
p1224
aVkernelarch-powerpc/config-arch-64-be
p1225
ass(g204
g1167
g173
tp1226
(dp1227
g207
(lp1228
Vpowerpc
p1229
aVpowerpc-smp
p1230
aVpowerpc64
p1231
asg211
I01
ss(Vbase
p1232
Vpowerpcspe
p1233
tp1234
(dp1235
Vkernel-arch
p1236
Vpowerpc
p1237
sg171
(lp1238
g173
ass(Vbuild
p1239
g1233
tp1240
(dp1241
Vimage-file
p1242
Vvmlinux
p1243
sVvdso
p1244
I01
ss(Vimage
p1245
g1233
tp1246
(dp1247
Vsuggests
p1248
(lp1249
Vmkvmlinuz
p1250
asVinstall-stem
p1251
Vvmlinux
p1252
ss(Vdescription
p1253
g1233
tp1254
(dp1255
Vhardware
p1256
V32-bit PowerPC with SPE (instead of AltiVec) with SMP support
p1257
ss(g204
g1233
g173
tp1258
(dp1259
g207
(lp1260
Vpowerpcspe
p1261
asg211
I01
ss(Vbase
p1262
Vppc64
p1263
tp1264
(dp1265
Vkernel-arch
p1266
Vpowerpc
p1267
sg171
(lp1268
g173
ass(Vbuild
p1269
g1263
tp1270
(dp1271
Vimage-file
p1272
Vvmlinux
p1273
sVvdso
p1274
I01
ss(Vimage
p1275
g1263
tp1276
(dp1277
Vconfigs
p1278
(lp1279
sVbootloaders
p1280
(lp1281
Vgrub-ieee1275
p1282
asVsuggests
p1283
(lp1284
Vmkvmlinuz
p1285
asVinstall-stem
p1286
Vvmlinux
p1287
ss(Vdescription
p1288
g1263
NVpowerpc64
p1289
tp1290
(dp1291
Vhardware
p1292
V64-bit PowerPC
p1293
ss(Vimage
p1294
g1263
NVpowerpc64
p1295
tp1296
(dp1297
Vconfigs
p1298
(lp1299
Vkernelarch-powerpc/config-arch-64
p1300
aVkernelarch-powerpc/config-arch-64-be
p1301
ass(g204
g1263
g173
tp1302
(dp1303
g207
(lp1304
Vpowerpc64
p1305
asg211
I01
ss(Vbase
p1306
Vppc64el
p1307
tp1308
(dp1309
Vkernel-arch
p1310
Vpowerpc
p1311
sg171
(lp1312
g173
ass(Vbuild
p1313
g1307
tp1314
(dp1315
Vimage-file
p1316
Vvmlinux
p1317
sVvdso
p1318
I01
ss(Vimage
p1319
g1307
tp1320
(dp1321
Vconfigs
p1322
(lp1323
sVbootloaders
p1324
(lp1325
Vgrub-ieee1275
p1326
asVsuggests
p1327
(lp1328
Vmkvmlinuz
p1329
asVinstall-stem
p1330
Vvmlinux
p1331
ss(Vdescription
p1332
g1307
NVpowerpc64le
p1333
tp1334
(dp1335
Vhardware
p1336
VLittle-endian 64-bit PowerPC
p1337
ss(Vimage
p1338
g1307
NVpowerpc64le
p1339
tp1340
(dp1341
Vconfigs
p1342
(lp1343
Vkernelarch-powerpc/config-arch-64
p1344
aVkernelarch-powerpc/config-arch-64-le
p1345
ass(g204
g1307
g173
tp1346
(dp1347
g207
(lp1348
Vpowerpc64le
p1349
asg211
I01
ss(Vbase
p1350
Vriscv64
p1351
tp1352
(dp1353
Vkernel-arch
p1354
Vriscv
p1355
sVfeaturesets
p1356
(lp1357
Vnone
p1358
ass(Vbuild
p1359
g1351
tp1360
(dp1361
Vimage-file
p1362
Vvmlinux
p1363
sVvdso
p1364
I01
ss(Vimage
p1365
g1351
tp1366
(dp1367
Vinstall-stem
p1368
Vvmlinux
p1369
ss(Vdescription
p1370
g1351
NVriscv64
p1371
tp1372
(dp1373
Vhardware
p1374
V64-bit RISC-V platforms
p1375
sVhardware-long
p1376
V64-bit RISC-V platforms
p1377
ss(Vbase
p1378
g1351
Vnone
p1379
tp1380
(dp1381
Vflavours
p1382
(lp1383
Vriscv64
p1384
ass(Vbase
p1385
Vs390
p1386
tp1387
(dp1388
Vkernel-arch
p1389
Vs390
p1390
sVfeaturesets
p1391
(lp1392
ss(Vbase
p1393
Vs390x
p1394
tp1395
(dp1396
Vkernel-arch
p1397
Vs390
p1398
sg171
(lp1399
g173
ass(Vbuild
p1400
g1394
tp1401
(dp1402
Vimage-file
p1403
Varch/s390/boot/bzImage
p1404
sVvdso
p1405
I01
ss(Vimage
p1406
g1394
tp1407
(dp1408
Vbootloaders
p1409
(lp1410
Vs390-tools
p1411
asVinstall-stem
p1412
Vvmlinuz
p1413
ss(Vrelations
p1414
g1394
tp1415
(dp1416
Vheaders%gcc-8
p1417
Vlinux-compiler-gcc-8-s390
p1418
ss(Vbuild
p1419
g1394
NVs390x
p1420
tp1421
(dp1422
Vdebug-info
p1423
I01
ss(Vdescription
p1424
g1394
NVs390x
p1425
tp1426
(dp1427
Vhardware
p1428
VIBM zSeries
p1429
ss(g204
g1394
g173
tp1430
(dp1431
g207
(lp1432
Vs390x
p1433
asg211
I01
ss(Vbase
p1434
Vsh3
p1435
tp1436
(dp1437
Vkernel-arch
p1438
Vsh
p1439
sVfeaturesets
p1440
(lp1441
ss(Vbase
p1442
Vsh4
p1443
tp1444
(dp1445
Vkernel-arch
p1446
Vsh
p1447
sg171
(lp1448
g173
ass(Vbuild
p1449
g1443
tp1450
(dp1451
Vimage-file
p1452
Varch/sh/boot/zImage
p1453
ss(Vimage
p1454
g1443
tp1455
(dp1456
Vinstall-stem
p1457
Vvmlinuz
p1458
ss(Vdescription
p1459
g1443
NVsh7751r
p1460
tp1461
(dp1462
Vhardware
p1463
Vsh7751r
p1464
sVhardware-long
p1465
VRenesas SH7751R R2D plus board
p1466
ss(Vdescription
p1467
g1443
NVsh7785lcr
p1468
tp1469
(dp1470
Vhardware
p1471
Vsh7785lcr
p1472
sVhardware-long
p1473
VRenesas SH7785 reference board
p1474
ss(Vimage
p1475
g1443
NVsh7785lcr
p1476
tp1477
(dp1478
Vrecommends
p1479
(lp1480
Vu-boot-tools
p1481
asVcheck-size
p1482
I4194304
ss(g204
g1443
g173
tp1483
(dp1484
g207
(lp1485
Vsh7751r
p1486
aVsh7785lcr
p1487
asg211
I01
ss(Vbase
p1488
Vsparc
p1489
tp1490
(dp1491
Vkernel-arch
p1492
Vsparc
p1493
sVfeaturesets
p1494
(lp1495
ss(Vbase
p1496
Vsparc64
p1497
tp1498
(dp1499
Vkernel-arch
p1500
Vsparc
p1501
sg171
(lp1502
g173
ass(Vbuild
p1503
g1497
tp1504
(dp1505
Vimage-file
p1506
Vvmlinux
p1507
ss(Vimage
p1508
g1497
tp1509
(dp1510
Vconfigs
p1511
(lp1512
sVbootloaders
p1513
(lp1514
Vgrub-ieee1275
p1515
asVsuggests
p1516
(lp1517
Vfdutils
p1518
asVinstall-stem
p1519
Vvmlinux
p1520
ss(Vdescription
p1521
g1497
NVsparc64
p1522
tp1523
(dp1524
Vhardware
p1525
Vuniprocessor 64-bit UltraSPARC
p1526
ss(Vimage
p1527
g1497
NVsparc64
p1528
tp1529
(dp1530
Vconfigs
p1531
(lp1532
Vkernelarch-sparc/config-up
p1533
ass(Vdescription
p1534
g1497
NVsparc64-smp
p1535
tp1536
(dp1537
Vhardware
p1538
Vmultiprocessor 64-bit UltraSPARC
p1539
ss(Vimage
p1540
g1497
NVsparc64-smp
p1541
tp1542
(dp1543
Vconfigs
p1544
(lp1545
Vkernelarch-sparc/config-smp
p1546
ass(g204
g1497
g173
tp1547
(dp1548
g207
(lp1549
Vsparc64
p1550
aVsparc64-smp
p1551
asg211
I01
ss(Vbase
p1552
Vx32
p1553
tp1554
(dp1555
Vkernel-arch
p1556
Vx86
p1557
sVfeaturesets
p1558
(lp1559
ss(Vabi
p1560
NVrt
p1561
tp1562
(dp1563
Vignore-changes
p1564
(lp1565
V*
p1566
ass(Vdescription
p1567
Ng1561
tp1568
(dp1569
Vpart-long-rt
p1570
VThis kernel includes the PREEMPT_RT realtime patch set.
p1571
sVpart-short-rt
p1572
VPREEMPT_RT
p1573
sVparts
p1574
(lp1575
Vrt
p1576
ass(Vversion
p1577
tp1578
(dp1579
Vsource
p1580
V4.19.160-2
p1581
sVupstream
p1582
V4.19
p1583
sVabiname_base
p1584
V4.19.0
p1585
sVabiname
p1586
V4.19.0-13
p1587
ss.